ARM GAS  C:\Users\Henrique\AppData\Local\Temp\ccvZC405.s 			page 1


   1              		.syntax unified
   2              		.cpu cortex-m0
   3              		.fpu softvfp
   4              		.eabi_attribute 20, 1
   5              		.eabi_attribute 21, 1
   6              		.eabi_attribute 23, 3
   7              		.eabi_attribute 24, 1
   8              		.eabi_attribute 25, 1
   9              		.eabi_attribute 26, 1
  10              		.eabi_attribute 30, 1
  11              		.eabi_attribute 34, 0
  12              		.eabi_attribute 18, 4
  13              		.thumb
  14              		.syntax unified
  15              		.file	"cyfitter_cfg.c"
  16              		.text
  17              	.Ltext0:
  18              		.cfi_sections	.debug_frame
  19              		.section	.text.cfg_write_bytes32,"ax",%progbits
  20              		.align	2
  21              		.code	16
  22              		.thumb_func
  23              		.type	cfg_write_bytes32, %function
  24              	cfg_write_bytes32:
  25              	.LFB3:
  26              		.file 1 "Generated_Source\\PSoC4\\cyfitter_cfg.c"
   1:Generated_Source\PSoC4/cyfitter_cfg.c **** 
   2:Generated_Source\PSoC4/cyfitter_cfg.c **** /*******************************************************************************
   3:Generated_Source\PSoC4/cyfitter_cfg.c **** * File Name: cyfitter_cfg.c
   4:Generated_Source\PSoC4/cyfitter_cfg.c **** * 
   5:Generated_Source\PSoC4/cyfitter_cfg.c **** * PSoC Creator  4.4
   6:Generated_Source\PSoC4/cyfitter_cfg.c **** *
   7:Generated_Source\PSoC4/cyfitter_cfg.c **** * Description:
   8:Generated_Source\PSoC4/cyfitter_cfg.c **** * This file contains device initialization code.
   9:Generated_Source\PSoC4/cyfitter_cfg.c **** * Except for the user defined sections in CyClockStartupError(), this file should not be modified.
  10:Generated_Source\PSoC4/cyfitter_cfg.c **** * This file is automatically generated by PSoC Creator.
  11:Generated_Source\PSoC4/cyfitter_cfg.c **** *
  12:Generated_Source\PSoC4/cyfitter_cfg.c **** ********************************************************************************
  13:Generated_Source\PSoC4/cyfitter_cfg.c **** * Copyright (c) 2007-2020 Cypress Semiconductor.  All rights reserved.
  14:Generated_Source\PSoC4/cyfitter_cfg.c **** * You may use this file only in accordance with the license, terms, conditions, 
  15:Generated_Source\PSoC4/cyfitter_cfg.c **** * disclaimers, and limitations in the end user license agreement accompanying 
  16:Generated_Source\PSoC4/cyfitter_cfg.c **** * the software package with which this file was provided.
  17:Generated_Source\PSoC4/cyfitter_cfg.c **** ********************************************************************************/
  18:Generated_Source\PSoC4/cyfitter_cfg.c **** 
  19:Generated_Source\PSoC4/cyfitter_cfg.c **** #include <string.h>
  20:Generated_Source\PSoC4/cyfitter_cfg.c **** #include "cytypes.h"
  21:Generated_Source\PSoC4/cyfitter_cfg.c **** #include "cydevice_trm.h"
  22:Generated_Source\PSoC4/cyfitter_cfg.c **** #include "cyfitter.h"
  23:Generated_Source\PSoC4/cyfitter_cfg.c **** #include "CyLib.h"
  24:Generated_Source\PSoC4/cyfitter_cfg.c **** #include "CyLFClk.h"
  25:Generated_Source\PSoC4/cyfitter_cfg.c **** #include "cyfitter_cfg.h"
  26:Generated_Source\PSoC4/cyfitter_cfg.c **** #include "cyapicallbacks.h"
  27:Generated_Source\PSoC4/cyfitter_cfg.c **** 
  28:Generated_Source\PSoC4/cyfitter_cfg.c **** 
  29:Generated_Source\PSoC4/cyfitter_cfg.c **** #if defined(__GNUC__) || defined(__ARMCC_VERSION)
  30:Generated_Source\PSoC4/cyfitter_cfg.c ****     #define CYPACKED 
  31:Generated_Source\PSoC4/cyfitter_cfg.c ****     #define CYPACKED_ATTR __attribute__ ((packed))
ARM GAS  C:\Users\Henrique\AppData\Local\Temp\ccvZC405.s 			page 2


  32:Generated_Source\PSoC4/cyfitter_cfg.c ****     #define CYALIGNED __attribute__ ((aligned))
  33:Generated_Source\PSoC4/cyfitter_cfg.c ****     #define CY_CFG_UNUSED __attribute__ ((unused))
  34:Generated_Source\PSoC4/cyfitter_cfg.c ****     #ifndef CY_CFG_SECTION
  35:Generated_Source\PSoC4/cyfitter_cfg.c ****         #define CY_CFG_SECTION __attribute__ ((section(".psocinit")))
  36:Generated_Source\PSoC4/cyfitter_cfg.c ****     #endif
  37:Generated_Source\PSoC4/cyfitter_cfg.c ****     
  38:Generated_Source\PSoC4/cyfitter_cfg.c ****     #if defined(__ARMCC_VERSION)
  39:Generated_Source\PSoC4/cyfitter_cfg.c ****         #define CY_CFG_MEMORY_BARRIER() __memory_changed()
  40:Generated_Source\PSoC4/cyfitter_cfg.c ****     #else
  41:Generated_Source\PSoC4/cyfitter_cfg.c ****         #define CY_CFG_MEMORY_BARRIER() __sync_synchronize()
  42:Generated_Source\PSoC4/cyfitter_cfg.c ****     #endif
  43:Generated_Source\PSoC4/cyfitter_cfg.c ****     
  44:Generated_Source\PSoC4/cyfitter_cfg.c **** #elif defined(__ICCARM__)
  45:Generated_Source\PSoC4/cyfitter_cfg.c ****     #include <intrinsics.h>
  46:Generated_Source\PSoC4/cyfitter_cfg.c **** 
  47:Generated_Source\PSoC4/cyfitter_cfg.c ****     #define CYPACKED __packed
  48:Generated_Source\PSoC4/cyfitter_cfg.c ****     #define CYPACKED_ATTR 
  49:Generated_Source\PSoC4/cyfitter_cfg.c ****     #define CYALIGNED _Pragma("data_alignment=4")
  50:Generated_Source\PSoC4/cyfitter_cfg.c ****     #define CY_CFG_UNUSED _Pragma("diag_suppress=Pe177")
  51:Generated_Source\PSoC4/cyfitter_cfg.c ****     #define CY_CFG_SECTION _Pragma("location=\".psocinit\"")
  52:Generated_Source\PSoC4/cyfitter_cfg.c ****     
  53:Generated_Source\PSoC4/cyfitter_cfg.c ****     #define CY_CFG_MEMORY_BARRIER() __DMB()
  54:Generated_Source\PSoC4/cyfitter_cfg.c ****     
  55:Generated_Source\PSoC4/cyfitter_cfg.c **** #else
  56:Generated_Source\PSoC4/cyfitter_cfg.c ****     #error Unsupported toolchain
  57:Generated_Source\PSoC4/cyfitter_cfg.c **** #endif
  58:Generated_Source\PSoC4/cyfitter_cfg.c **** 
  59:Generated_Source\PSoC4/cyfitter_cfg.c **** #ifndef CYCODE
  60:Generated_Source\PSoC4/cyfitter_cfg.c ****     #define CYCODE
  61:Generated_Source\PSoC4/cyfitter_cfg.c **** #endif
  62:Generated_Source\PSoC4/cyfitter_cfg.c **** #ifndef CYDATA
  63:Generated_Source\PSoC4/cyfitter_cfg.c ****     #define CYDATA
  64:Generated_Source\PSoC4/cyfitter_cfg.c **** #endif
  65:Generated_Source\PSoC4/cyfitter_cfg.c **** #ifndef CYFAR
  66:Generated_Source\PSoC4/cyfitter_cfg.c ****     #define CYFAR
  67:Generated_Source\PSoC4/cyfitter_cfg.c **** #endif
  68:Generated_Source\PSoC4/cyfitter_cfg.c **** #ifndef CYXDATA
  69:Generated_Source\PSoC4/cyfitter_cfg.c ****     #define CYXDATA
  70:Generated_Source\PSoC4/cyfitter_cfg.c **** #endif
  71:Generated_Source\PSoC4/cyfitter_cfg.c **** 
  72:Generated_Source\PSoC4/cyfitter_cfg.c **** 
  73:Generated_Source\PSoC4/cyfitter_cfg.c **** CY_CFG_UNUSED
  74:Generated_Source\PSoC4/cyfitter_cfg.c **** static void CYMEMZERO(void *s, size_t n);
  75:Generated_Source\PSoC4/cyfitter_cfg.c **** CY_CFG_UNUSED
  76:Generated_Source\PSoC4/cyfitter_cfg.c **** static void CYMEMZERO(void *s, size_t n)
  77:Generated_Source\PSoC4/cyfitter_cfg.c **** {
  78:Generated_Source\PSoC4/cyfitter_cfg.c **** 	(void)memset(s, 0, n);
  79:Generated_Source\PSoC4/cyfitter_cfg.c **** }
  80:Generated_Source\PSoC4/cyfitter_cfg.c **** CY_CFG_UNUSED
  81:Generated_Source\PSoC4/cyfitter_cfg.c **** static void CYCONFIGCPY(void *dest, const void *src, size_t n);
  82:Generated_Source\PSoC4/cyfitter_cfg.c **** CY_CFG_UNUSED
  83:Generated_Source\PSoC4/cyfitter_cfg.c **** static void CYCONFIGCPY(void *dest, const void *src, size_t n)
  84:Generated_Source\PSoC4/cyfitter_cfg.c **** {
  85:Generated_Source\PSoC4/cyfitter_cfg.c **** 	(void)memcpy(dest, src, n);
  86:Generated_Source\PSoC4/cyfitter_cfg.c **** }
  87:Generated_Source\PSoC4/cyfitter_cfg.c **** CY_CFG_UNUSED
  88:Generated_Source\PSoC4/cyfitter_cfg.c **** static void CYCONFIGCPYCODE(void *dest, const void *src, size_t n);
ARM GAS  C:\Users\Henrique\AppData\Local\Temp\ccvZC405.s 			page 3


  89:Generated_Source\PSoC4/cyfitter_cfg.c **** CY_CFG_UNUSED
  90:Generated_Source\PSoC4/cyfitter_cfg.c **** static void CYCONFIGCPYCODE(void *dest, const void *src, size_t n)
  91:Generated_Source\PSoC4/cyfitter_cfg.c **** {
  92:Generated_Source\PSoC4/cyfitter_cfg.c **** 	(void)memcpy(dest, src, n);
  93:Generated_Source\PSoC4/cyfitter_cfg.c **** }
  94:Generated_Source\PSoC4/cyfitter_cfg.c **** 
  95:Generated_Source\PSoC4/cyfitter_cfg.c **** 
  96:Generated_Source\PSoC4/cyfitter_cfg.c **** 
  97:Generated_Source\PSoC4/cyfitter_cfg.c **** 
  98:Generated_Source\PSoC4/cyfitter_cfg.c **** /* Clock startup error codes                                                   */
  99:Generated_Source\PSoC4/cyfitter_cfg.c **** #define CYCLOCKSTART_NO_ERROR    0u
 100:Generated_Source\PSoC4/cyfitter_cfg.c **** #define CYCLOCKSTART_XTAL_ERROR  1u
 101:Generated_Source\PSoC4/cyfitter_cfg.c **** #define CYCLOCKSTART_32KHZ_ERROR 2u
 102:Generated_Source\PSoC4/cyfitter_cfg.c **** #define CYCLOCKSTART_PLL_ERROR   3u
 103:Generated_Source\PSoC4/cyfitter_cfg.c **** #define CYCLOCKSTART_FLL_ERROR   4u
 104:Generated_Source\PSoC4/cyfitter_cfg.c **** #define CYCLOCKSTART_WCO_ERROR   5u
 105:Generated_Source\PSoC4/cyfitter_cfg.c **** 
 106:Generated_Source\PSoC4/cyfitter_cfg.c **** 
 107:Generated_Source\PSoC4/cyfitter_cfg.c **** #ifdef CY_NEED_CYCLOCKSTARTUPERROR
 108:Generated_Source\PSoC4/cyfitter_cfg.c **** /*******************************************************************************
 109:Generated_Source\PSoC4/cyfitter_cfg.c **** * Function Name: CyClockStartupError
 110:Generated_Source\PSoC4/cyfitter_cfg.c **** ********************************************************************************
 111:Generated_Source\PSoC4/cyfitter_cfg.c **** * Summary:
 112:Generated_Source\PSoC4/cyfitter_cfg.c **** *  If an error is encountered during clock configuration (crystal startup error,
 113:Generated_Source\PSoC4/cyfitter_cfg.c **** *  PLL lock error, etc.), the system will end up here.  Unless reimplemented by
 114:Generated_Source\PSoC4/cyfitter_cfg.c **** *  the customer, this function will stop in an infinite loop.
 115:Generated_Source\PSoC4/cyfitter_cfg.c **** *
 116:Generated_Source\PSoC4/cyfitter_cfg.c **** * Parameters:
 117:Generated_Source\PSoC4/cyfitter_cfg.c **** *   void
 118:Generated_Source\PSoC4/cyfitter_cfg.c **** *
 119:Generated_Source\PSoC4/cyfitter_cfg.c **** * Return:
 120:Generated_Source\PSoC4/cyfitter_cfg.c **** *   void
 121:Generated_Source\PSoC4/cyfitter_cfg.c **** *
 122:Generated_Source\PSoC4/cyfitter_cfg.c **** *******************************************************************************/
 123:Generated_Source\PSoC4/cyfitter_cfg.c **** CY_CFG_UNUSED
 124:Generated_Source\PSoC4/cyfitter_cfg.c **** static void CyClockStartupError(uint8 errorCode);
 125:Generated_Source\PSoC4/cyfitter_cfg.c **** CY_CFG_UNUSED
 126:Generated_Source\PSoC4/cyfitter_cfg.c **** static void CyClockStartupError(uint8 errorCode)
 127:Generated_Source\PSoC4/cyfitter_cfg.c **** {
 128:Generated_Source\PSoC4/cyfitter_cfg.c ****     /* To remove the compiler warning if errorCode not used.                */
 129:Generated_Source\PSoC4/cyfitter_cfg.c ****     errorCode = errorCode;
 130:Generated_Source\PSoC4/cyfitter_cfg.c **** 
 131:Generated_Source\PSoC4/cyfitter_cfg.c ****     /* If we have a clock startup error (bad MHz crystal, PLL lock, etc.),  */
 132:Generated_Source\PSoC4/cyfitter_cfg.c ****     /* we will end up here to allow the customer to implement something to  */
 133:Generated_Source\PSoC4/cyfitter_cfg.c ****     /* deal with the clock condition.                                       */
 134:Generated_Source\PSoC4/cyfitter_cfg.c **** 
 135:Generated_Source\PSoC4/cyfitter_cfg.c **** #ifdef CY_CFG_CLOCK_STARTUP_ERROR_CALLBACK
 136:Generated_Source\PSoC4/cyfitter_cfg.c ****     CY_CFG_Clock_Startup_ErrorCallback();
 137:Generated_Source\PSoC4/cyfitter_cfg.c **** #else
 138:Generated_Source\PSoC4/cyfitter_cfg.c ****     /*  If not using CY_CFG_CLOCK_STARTUP_ERROR_CALLBACK, place your clock startup code here. */
 139:Generated_Source\PSoC4/cyfitter_cfg.c ****     /* `#START CyClockStartupError` */
 140:Generated_Source\PSoC4/cyfitter_cfg.c **** 
 141:Generated_Source\PSoC4/cyfitter_cfg.c **** 
 142:Generated_Source\PSoC4/cyfitter_cfg.c **** 
 143:Generated_Source\PSoC4/cyfitter_cfg.c ****     /* `#END` */
 144:Generated_Source\PSoC4/cyfitter_cfg.c **** 
 145:Generated_Source\PSoC4/cyfitter_cfg.c ****     while(1) {}
ARM GAS  C:\Users\Henrique\AppData\Local\Temp\ccvZC405.s 			page 4


 146:Generated_Source\PSoC4/cyfitter_cfg.c **** #endif /* CY_CFG_CLOCK_STARTUP_ERROR_CALLBACK */
 147:Generated_Source\PSoC4/cyfitter_cfg.c **** }
 148:Generated_Source\PSoC4/cyfitter_cfg.c **** #endif
 149:Generated_Source\PSoC4/cyfitter_cfg.c **** 
 150:Generated_Source\PSoC4/cyfitter_cfg.c **** #define CY_CFG_BASE_ADDR_COUNT 8u
 151:Generated_Source\PSoC4/cyfitter_cfg.c **** CYPACKED typedef struct
 152:Generated_Source\PSoC4/cyfitter_cfg.c **** {
 153:Generated_Source\PSoC4/cyfitter_cfg.c **** 	uint8 offset;
 154:Generated_Source\PSoC4/cyfitter_cfg.c **** 	uint8 value;
 155:Generated_Source\PSoC4/cyfitter_cfg.c **** } CYPACKED_ATTR cy_cfg_addrvalue_t;
 156:Generated_Source\PSoC4/cyfitter_cfg.c **** 
 157:Generated_Source\PSoC4/cyfitter_cfg.c **** 
 158:Generated_Source\PSoC4/cyfitter_cfg.c **** 
 159:Generated_Source\PSoC4/cyfitter_cfg.c **** /*******************************************************************************
 160:Generated_Source\PSoC4/cyfitter_cfg.c **** * Function Name: cfg_write_bytes32
 161:Generated_Source\PSoC4/cyfitter_cfg.c **** ********************************************************************************
 162:Generated_Source\PSoC4/cyfitter_cfg.c **** * Summary:
 163:Generated_Source\PSoC4/cyfitter_cfg.c **** *  This function is used for setting up the chip configuration areas that
 164:Generated_Source\PSoC4/cyfitter_cfg.c **** *  contain relatively sparse data.
 165:Generated_Source\PSoC4/cyfitter_cfg.c **** *
 166:Generated_Source\PSoC4/cyfitter_cfg.c **** * Parameters:
 167:Generated_Source\PSoC4/cyfitter_cfg.c **** *   void
 168:Generated_Source\PSoC4/cyfitter_cfg.c **** *
 169:Generated_Source\PSoC4/cyfitter_cfg.c **** * Return:
 170:Generated_Source\PSoC4/cyfitter_cfg.c **** *   void
 171:Generated_Source\PSoC4/cyfitter_cfg.c **** *
 172:Generated_Source\PSoC4/cyfitter_cfg.c **** *******************************************************************************/
 173:Generated_Source\PSoC4/cyfitter_cfg.c **** static void cfg_write_bytes32(const uint32 addr_table[], const cy_cfg_addrvalue_t data_table[]);
 174:Generated_Source\PSoC4/cyfitter_cfg.c **** static void cfg_write_bytes32(const uint32 addr_table[], const cy_cfg_addrvalue_t data_table[])
 175:Generated_Source\PSoC4/cyfitter_cfg.c **** {
  27              		.loc 1 175 0
  28              		.cfi_startproc
  29              		@ args = 0, pretend = 0, frame = 0
  30              		@ frame_needed = 0, uses_anonymous_args = 0
  31              	.LVL0:
  32 0000 F0B5     		push	{r4, r5, r6, r7, lr}
  33              		.cfi_def_cfa_offset 20
  34              		.cfi_offset 4, -20
  35              		.cfi_offset 5, -16
  36              		.cfi_offset 6, -12
  37              		.cfi_offset 7, -8
  38              		.cfi_offset 14, -4
  39              	.LVL1:
 176:Generated_Source\PSoC4/cyfitter_cfg.c **** 	/* For 32-bit little-endian architectures */
 177:Generated_Source\PSoC4/cyfitter_cfg.c **** 	uint32 i, j = 0u;
  40              		.loc 1 177 0
  41 0002 0025     		movs	r5, #0
 178:Generated_Source\PSoC4/cyfitter_cfg.c **** 	for (i = 0u; i < CY_CFG_BASE_ADDR_COUNT; i++)
  42              		.loc 1 178 0
  43 0004 0027     		movs	r7, #0
  44 0006 11E0     		b	.L2
  45              	.LVL2:
  46              	.L5:
  47              	.LBB2:
 179:Generated_Source\PSoC4/cyfitter_cfg.c **** 	{
 180:Generated_Source\PSoC4/cyfitter_cfg.c **** 		uint32 baseAddr = addr_table[i];
  48              		.loc 1 180 0
ARM GAS  C:\Users\Henrique\AppData\Local\Temp\ccvZC405.s 			page 5


  49 0008 BB00     		lsls	r3, r7, #2
  50 000a C658     		ldr	r6, [r0, r3]
  51              	.LVL3:
 181:Generated_Source\PSoC4/cyfitter_cfg.c **** 		uint8 count = (uint8)baseAddr;
  52              		.loc 1 181 0
  53 000c F3B2     		uxtb	r3, r6
  54              	.LVL4:
 182:Generated_Source\PSoC4/cyfitter_cfg.c **** 		baseAddr &= 0xFFFFFF00u;
  55              		.loc 1 182 0
  56 000e FF22     		movs	r2, #255
  57 0010 9643     		bics	r6, r2
  58              	.LVL5:
 183:Generated_Source\PSoC4/cyfitter_cfg.c **** 		while (count != 0u)
  59              		.loc 1 183 0
  60 0012 08E0     		b	.L3
  61              	.L4:
 184:Generated_Source\PSoC4/cyfitter_cfg.c **** 		{
 185:Generated_Source\PSoC4/cyfitter_cfg.c **** 			CY_SET_REG8((void *)(baseAddr + data_table[j].offset), data_table[j].value);
  62              		.loc 1 185 0
  63 0014 6A00     		lsls	r2, r5, #1
  64 0016 8A18     		adds	r2, r1, r2
  65 0018 1478     		ldrb	r4, [r2]
  66 001a A419     		adds	r4, r4, r6
  67 001c 5278     		ldrb	r2, [r2, #1]
  68 001e 2270     		strb	r2, [r4]
 186:Generated_Source\PSoC4/cyfitter_cfg.c **** 			j++;
  69              		.loc 1 186 0
  70 0020 0135     		adds	r5, r5, #1
  71              	.LVL6:
 187:Generated_Source\PSoC4/cyfitter_cfg.c **** 			count--;
  72              		.loc 1 187 0
  73 0022 013B     		subs	r3, r3, #1
  74              	.LVL7:
  75 0024 DBB2     		uxtb	r3, r3
  76              	.LVL8:
  77              	.L3:
 183:Generated_Source\PSoC4/cyfitter_cfg.c **** 		{
  78              		.loc 1 183 0
  79 0026 002B     		cmp	r3, #0
  80 0028 F4D1     		bne	.L4
  81              	.LBE2:
 178:Generated_Source\PSoC4/cyfitter_cfg.c **** 	{
  82              		.loc 1 178 0 discriminator 2
  83 002a 0137     		adds	r7, r7, #1
  84              	.LVL9:
  85              	.L2:
 178:Generated_Source\PSoC4/cyfitter_cfg.c **** 	{
  86              		.loc 1 178 0 is_stmt 0 discriminator 1
  87 002c 072F     		cmp	r7, #7
  88 002e EBD9     		bls	.L5
 188:Generated_Source\PSoC4/cyfitter_cfg.c **** 		}
 189:Generated_Source\PSoC4/cyfitter_cfg.c **** 	}
 190:Generated_Source\PSoC4/cyfitter_cfg.c **** }
  89              		.loc 1 190 0 is_stmt 1
  90              		@ sp needed
  91              	.LVL10:
  92              	.LVL11:
ARM GAS  C:\Users\Henrique\AppData\Local\Temp\ccvZC405.s 			page 6


  93 0030 F0BD     		pop	{r4, r5, r6, r7, pc}
  94              		.cfi_endproc
  95              	.LFE3:
  96              		.size	cfg_write_bytes32, .-cfg_write_bytes32
  97 0032 C046     		.section	.text.CYMEMZERO,"ax",%progbits
  98              		.align	2
  99              		.code	16
 100              		.thumb_func
 101              		.type	CYMEMZERO, %function
 102              	CYMEMZERO:
 103              	.LFB0:
  77:Generated_Source\PSoC4/cyfitter_cfg.c **** 	(void)memset(s, 0, n);
 104              		.loc 1 77 0
 105              		.cfi_startproc
 106              		@ args = 0, pretend = 0, frame = 0
 107              		@ frame_needed = 0, uses_anonymous_args = 0
 108              	.LVL12:
 109 0000 10B5     		push	{r4, lr}
 110              		.cfi_def_cfa_offset 8
 111              		.cfi_offset 4, -8
 112              		.cfi_offset 14, -4
 113 0002 0A00     		movs	r2, r1
  78:Generated_Source\PSoC4/cyfitter_cfg.c **** }
 114              		.loc 1 78 0
 115 0004 0021     		movs	r1, #0
 116              	.LVL13:
 117 0006 FFF7FEFF 		bl	memset
 118              	.LVL14:
  79:Generated_Source\PSoC4/cyfitter_cfg.c **** CY_CFG_UNUSED
 119              		.loc 1 79 0
 120              		@ sp needed
 121 000a 10BD     		pop	{r4, pc}
 122              		.cfi_endproc
 123              	.LFE0:
 124              		.size	CYMEMZERO, .-CYMEMZERO
 125              		.section	.text.CYCONFIGCPYCODE,"ax",%progbits
 126              		.align	2
 127              		.code	16
 128              		.thumb_func
 129              		.type	CYCONFIGCPYCODE, %function
 130              	CYCONFIGCPYCODE:
 131              	.LFB2:
  91:Generated_Source\PSoC4/cyfitter_cfg.c **** 	(void)memcpy(dest, src, n);
 132              		.loc 1 91 0
 133              		.cfi_startproc
 134              		@ args = 0, pretend = 0, frame = 0
 135              		@ frame_needed = 0, uses_anonymous_args = 0
 136              	.LVL15:
 137 0000 10B5     		push	{r4, lr}
 138              		.cfi_def_cfa_offset 8
 139              		.cfi_offset 4, -8
 140              		.cfi_offset 14, -4
  92:Generated_Source\PSoC4/cyfitter_cfg.c **** }
 141              		.loc 1 92 0
 142 0002 FFF7FEFF 		bl	memcpy
 143              	.LVL16:
  93:Generated_Source\PSoC4/cyfitter_cfg.c **** 
ARM GAS  C:\Users\Henrique\AppData\Local\Temp\ccvZC405.s 			page 7


 144              		.loc 1 93 0
 145              		@ sp needed
 146 0006 10BD     		pop	{r4, pc}
 147              		.cfi_endproc
 148              	.LFE2:
 149              		.size	CYCONFIGCPYCODE, .-CYCONFIGCPYCODE
 150              		.section	.psocinit,"ax",%progbits
 151              		.align	2
 152              		.code	16
 153              		.thumb_func
 154              		.type	ClockSetup, %function
 155              	ClockSetup:
 156              	.LFB4:
 191:Generated_Source\PSoC4/cyfitter_cfg.c **** 
 192:Generated_Source\PSoC4/cyfitter_cfg.c **** 
 193:Generated_Source\PSoC4/cyfitter_cfg.c **** /*******************************************************************************
 194:Generated_Source\PSoC4/cyfitter_cfg.c **** * Function Name: ClockSetup
 195:Generated_Source\PSoC4/cyfitter_cfg.c **** ********************************************************************************
 196:Generated_Source\PSoC4/cyfitter_cfg.c **** *
 197:Generated_Source\PSoC4/cyfitter_cfg.c **** * Summary:
 198:Generated_Source\PSoC4/cyfitter_cfg.c **** *   Performs the initialization of all of the clocks in the device based on the
 199:Generated_Source\PSoC4/cyfitter_cfg.c **** *   settings in the Clock tab of the DWR.  This includes enabling the requested
 200:Generated_Source\PSoC4/cyfitter_cfg.c **** *   clocks and setting the necessary dividers to produce the desired frequency. 
 201:Generated_Source\PSoC4/cyfitter_cfg.c **** *
 202:Generated_Source\PSoC4/cyfitter_cfg.c **** * Parameters:
 203:Generated_Source\PSoC4/cyfitter_cfg.c **** *   void
 204:Generated_Source\PSoC4/cyfitter_cfg.c **** *
 205:Generated_Source\PSoC4/cyfitter_cfg.c **** * Return:
 206:Generated_Source\PSoC4/cyfitter_cfg.c **** *   void
 207:Generated_Source\PSoC4/cyfitter_cfg.c **** *
 208:Generated_Source\PSoC4/cyfitter_cfg.c **** *******************************************************************************/
 209:Generated_Source\PSoC4/cyfitter_cfg.c **** static void ClockSetup(void);
 210:Generated_Source\PSoC4/cyfitter_cfg.c **** CY_CFG_SECTION
 211:Generated_Source\PSoC4/cyfitter_cfg.c **** static void ClockSetup(void)
 212:Generated_Source\PSoC4/cyfitter_cfg.c **** {
 157              		.loc 1 212 0
 158              		.cfi_startproc
 159              		@ args = 0, pretend = 0, frame = 0
 160              		@ frame_needed = 0, uses_anonymous_args = 0
 161 0000 70B5     		push	{r4, r5, r6, lr}
 162              		.cfi_def_cfa_offset 16
 163              		.cfi_offset 4, -16
 164              		.cfi_offset 5, -12
 165              		.cfi_offset 6, -8
 166              		.cfi_offset 14, -4
 213:Generated_Source\PSoC4/cyfitter_cfg.c **** 	/* Enable HALF_EN before trimming for the flash accelerator. */
 214:Generated_Source\PSoC4/cyfitter_cfg.c **** 	CY_SET_REG32((void CYXDATA *)(CYREG_CLK_SELECT), (CY_GET_REG32((void *)CYREG_CLK_SELECT) | 0x00040
 167              		.loc 1 214 0
 168 0002 164C     		ldr	r4, .L9
 169 0004 2368     		ldr	r3, [r4]
 170 0006 8022     		movs	r2, #128
 171 0008 D202     		lsls	r2, r2, #11
 172 000a 1343     		orrs	r3, r2
 173 000c 2360     		str	r3, [r4]
 215:Generated_Source\PSoC4/cyfitter_cfg.c **** 
 216:Generated_Source\PSoC4/cyfitter_cfg.c **** 	/* Setup and trim IMO based on desired frequency. */
 217:Generated_Source\PSoC4/cyfitter_cfg.c **** 	CySysClkWriteImoFreq(24u);
ARM GAS  C:\Users\Henrique\AppData\Local\Temp\ccvZC405.s 			page 8


 174              		.loc 1 217 0
 175 000e 1820     		movs	r0, #24
 176 0010 FFF7FEFF 		bl	CySysClkWriteImoFreq
 177              	.LVL17:
 218:Generated_Source\PSoC4/cyfitter_cfg.c **** 
 219:Generated_Source\PSoC4/cyfitter_cfg.c **** 	/* Disable HALF_EN since it is not required at this IMO frequency. */
 220:Generated_Source\PSoC4/cyfitter_cfg.c **** 	CY_SET_REG32((void CYXDATA *)(CYREG_CLK_SELECT), (CY_GET_REG32((void *)CYREG_CLK_SELECT) & 0xFFFBF
 178              		.loc 1 220 0
 179 0014 2268     		ldr	r2, [r4]
 180 0016 124B     		ldr	r3, .L9+4
 181 0018 1340     		ands	r3, r2
 182 001a 2360     		str	r3, [r4]
 221:Generated_Source\PSoC4/cyfitter_cfg.c **** 	/* CYDEV_CLK_ILO_CONFIG Starting address: CYDEV_CLK_ILO_CONFIG */
 222:Generated_Source\PSoC4/cyfitter_cfg.c **** 	CY_SET_REG32((void *)(CYREG_CLK_ILO_CONFIG), 0x80000006u);
 183              		.loc 1 222 0
 184 001c 114A     		ldr	r2, .L9+8
 185 001e 124B     		ldr	r3, .L9+12
 186 0020 1A60     		str	r2, [r3]
 223:Generated_Source\PSoC4/cyfitter_cfg.c **** 
 224:Generated_Source\PSoC4/cyfitter_cfg.c **** 
 225:Generated_Source\PSoC4/cyfitter_cfg.c **** 	/* CYDEV_CLK_SELECT00 Starting address: CYDEV_CLK_SELECT00 */
 226:Generated_Source\PSoC4/cyfitter_cfg.c **** 	CY_SET_REG32((void *)(CYREG_CLK_SELECT07), 0x00000010u);
 187              		.loc 1 226 0
 188 0022 1022     		movs	r2, #16
 189 0024 114B     		ldr	r3, .L9+16
 190 0026 1A60     		str	r2, [r3]
 227:Generated_Source\PSoC4/cyfitter_cfg.c **** 	CY_SET_REG32((void *)(CYREG_CLK_SELECT12), 0x00000020u);
 191              		.loc 1 227 0
 192 0028 1032     		adds	r2, r2, #16
 193 002a 114B     		ldr	r3, .L9+20
 194 002c 1A60     		str	r2, [r3]
 228:Generated_Source\PSoC4/cyfitter_cfg.c **** 
 229:Generated_Source\PSoC4/cyfitter_cfg.c **** 	/* CYDEV_CLK_IMO_CONFIG Starting address: CYDEV_CLK_IMO_CONFIG */
 230:Generated_Source\PSoC4/cyfitter_cfg.c **** 	CY_SET_REG32((void *)(CYREG_CLK_IMO_CONFIG), 0x82000000u);
 195              		.loc 1 230 0
 196 002e 8222     		movs	r2, #130
 197 0030 1206     		lsls	r2, r2, #24
 198 0032 104B     		ldr	r3, .L9+24
 199 0034 1A60     		str	r2, [r3]
 231:Generated_Source\PSoC4/cyfitter_cfg.c **** 
 232:Generated_Source\PSoC4/cyfitter_cfg.c **** 	/* CYDEV_CLK_SELECT Starting address: CYDEV_CLK_SELECT */
 233:Generated_Source\PSoC4/cyfitter_cfg.c **** 	CY_SET_REG32((void *)(CYREG_CLK_SELECT), 0x00000000u);
 200              		.loc 1 233 0
 201 0036 0025     		movs	r5, #0
 202 0038 2560     		str	r5, [r4]
 234:Generated_Source\PSoC4/cyfitter_cfg.c **** 
 235:Generated_Source\PSoC4/cyfitter_cfg.c **** 	/* CYDEV_CLK_DIVIDER_A00 Starting address: CYDEV_CLK_DIVIDER_A00 */
 236:Generated_Source\PSoC4/cyfitter_cfg.c **** 	CY_SET_REG32((void *)(CYREG_CLK_DIVIDER_A00), 0x80000007u);
 203              		.loc 1 236 0
 204 003a 0F4A     		ldr	r2, .L9+28
 205 003c 0F4B     		ldr	r3, .L9+32
 206 003e 1A60     		str	r2, [r3]
 237:Generated_Source\PSoC4/cyfitter_cfg.c **** 
 238:Generated_Source\PSoC4/cyfitter_cfg.c **** 	/* CYDEV_CLK_DIVIDER_B00 Starting address: CYDEV_CLK_DIVIDER_B00 */
 239:Generated_Source\PSoC4/cyfitter_cfg.c **** 	CY_SET_REG32((void *)(CYREG_CLK_DIVIDER_B00), 0x80000033u);
 207              		.loc 1 239 0
 208 0040 0F4A     		ldr	r2, .L9+36
ARM GAS  C:\Users\Henrique\AppData\Local\Temp\ccvZC405.s 			page 9


 209 0042 104B     		ldr	r3, .L9+40
 210 0044 1A60     		str	r2, [r3]
 240:Generated_Source\PSoC4/cyfitter_cfg.c **** 
 241:Generated_Source\PSoC4/cyfitter_cfg.c **** 	(void)CyIntSetVector(9u, &CySysWdtIsr);
 211              		.loc 1 241 0
 212 0046 1049     		ldr	r1, .L9+44
 213 0048 0920     		movs	r0, #9
 214 004a FFF7FEFF 		bl	CyIntSetVector
 215              	.LVL18:
 242:Generated_Source\PSoC4/cyfitter_cfg.c **** 	CyIntEnable(9u);
 216              		.loc 1 242 0
 217 004e 0920     		movs	r0, #9
 218 0050 FFF7FEFF 		bl	CyIntEnable
 219              	.LVL19:
 243:Generated_Source\PSoC4/cyfitter_cfg.c **** 	CY_SET_REG32((void *)(CYREG_WDT_CONFIG), 0x00000000u);
 220              		.loc 1 243 0
 221 0054 0D4B     		ldr	r3, .L9+48
 222 0056 1D60     		str	r5, [r3]
 244:Generated_Source\PSoC4/cyfitter_cfg.c **** }
 223              		.loc 1 244 0
 224              		@ sp needed
 225 0058 70BD     		pop	{r4, r5, r6, pc}
 226              	.L10:
 227 005a C046     		.align	2
 228              	.L9:
 229 005c 00010B40 		.word	1074462976
 230 0060 FFFFFBFF 		.word	-262145
 231 0064 06000080 		.word	-2147483642
 232 0068 04010B40 		.word	1074462980
 233 006c 1C020240 		.word	1073873436
 234 0070 30020240 		.word	1073873456
 235 0074 08010B40 		.word	1074462984
 236 0078 07000080 		.word	-2147483641
 237 007c 00000240 		.word	1073872896
 238 0080 33000080 		.word	-2147483597
 239 0084 40000240 		.word	1073872960
 240 0088 00000000 		.word	CySysWdtIsr
 241 008c 0C020B40 		.word	1074463244
 242              		.cfi_endproc
 243              	.LFE4:
 244              		.size	ClockSetup, .-ClockSetup
 245              		.section	.text.SetAnalogRoutingPumps,"ax",%progbits
 246              		.align	2
 247              		.global	SetAnalogRoutingPumps
 248              		.code	16
 249              		.thumb_func
 250              		.type	SetAnalogRoutingPumps, %function
 251              	SetAnalogRoutingPumps:
 252              	.LFB6:
 245:Generated_Source\PSoC4/cyfitter_cfg.c **** 
 246:Generated_Source\PSoC4/cyfitter_cfg.c **** 
 247:Generated_Source\PSoC4/cyfitter_cfg.c **** /* Analog API Functions */
 248:Generated_Source\PSoC4/cyfitter_cfg.c **** 
 249:Generated_Source\PSoC4/cyfitter_cfg.c **** 
 250:Generated_Source\PSoC4/cyfitter_cfg.c **** /*******************************************************************************
 251:Generated_Source\PSoC4/cyfitter_cfg.c **** * Function Name: AnalogSetDefault
 252:Generated_Source\PSoC4/cyfitter_cfg.c **** ********************************************************************************
ARM GAS  C:\Users\Henrique\AppData\Local\Temp\ccvZC405.s 			page 10


 253:Generated_Source\PSoC4/cyfitter_cfg.c **** *
 254:Generated_Source\PSoC4/cyfitter_cfg.c **** * Summary:
 255:Generated_Source\PSoC4/cyfitter_cfg.c **** *  Sets up the analog portions of the chip to default values based on chip
 256:Generated_Source\PSoC4/cyfitter_cfg.c **** *  configuration options from the project.
 257:Generated_Source\PSoC4/cyfitter_cfg.c **** *
 258:Generated_Source\PSoC4/cyfitter_cfg.c **** * Parameters:
 259:Generated_Source\PSoC4/cyfitter_cfg.c **** *  void
 260:Generated_Source\PSoC4/cyfitter_cfg.c **** *
 261:Generated_Source\PSoC4/cyfitter_cfg.c **** * Return:
 262:Generated_Source\PSoC4/cyfitter_cfg.c **** *  void
 263:Generated_Source\PSoC4/cyfitter_cfg.c **** *
 264:Generated_Source\PSoC4/cyfitter_cfg.c **** *******************************************************************************/
 265:Generated_Source\PSoC4/cyfitter_cfg.c **** static void AnalogSetDefault(void);
 266:Generated_Source\PSoC4/cyfitter_cfg.c **** static void AnalogSetDefault(void)
 267:Generated_Source\PSoC4/cyfitter_cfg.c **** {
 268:Generated_Source\PSoC4/cyfitter_cfg.c **** 	CY_SET_XTND_REG32((void CYFAR *)CYREG_SAR_MUX_SWITCH0, 0x00000008u);
 269:Generated_Source\PSoC4/cyfitter_cfg.c **** 	SetAnalogRoutingPumps(1);
 270:Generated_Source\PSoC4/cyfitter_cfg.c **** }
 271:Generated_Source\PSoC4/cyfitter_cfg.c **** 
 272:Generated_Source\PSoC4/cyfitter_cfg.c **** 
 273:Generated_Source\PSoC4/cyfitter_cfg.c **** /*******************************************************************************
 274:Generated_Source\PSoC4/cyfitter_cfg.c **** * Function Name: SetAnalogRoutingPumps
 275:Generated_Source\PSoC4/cyfitter_cfg.c **** ********************************************************************************
 276:Generated_Source\PSoC4/cyfitter_cfg.c **** *
 277:Generated_Source\PSoC4/cyfitter_cfg.c **** * Summary:
 278:Generated_Source\PSoC4/cyfitter_cfg.c **** * Enables or disables the analog pumps feeding analog routing switches.
 279:Generated_Source\PSoC4/cyfitter_cfg.c **** * Intended to be called at startup, based on the Vdda system configuration;
 280:Generated_Source\PSoC4/cyfitter_cfg.c **** * may be called during operation when the user informs us that the Vdda voltage crossed the pump th
 281:Generated_Source\PSoC4/cyfitter_cfg.c **** *
 282:Generated_Source\PSoC4/cyfitter_cfg.c **** * Parameters:
 283:Generated_Source\PSoC4/cyfitter_cfg.c **** *  enabled - 1 to enable the pumps, 0 to disable the pumps
 284:Generated_Source\PSoC4/cyfitter_cfg.c **** *
 285:Generated_Source\PSoC4/cyfitter_cfg.c **** * Return:
 286:Generated_Source\PSoC4/cyfitter_cfg.c **** *  void
 287:Generated_Source\PSoC4/cyfitter_cfg.c **** *
 288:Generated_Source\PSoC4/cyfitter_cfg.c **** *******************************************************************************/
 289:Generated_Source\PSoC4/cyfitter_cfg.c **** void SetAnalogRoutingPumps(uint8 enabled)
 290:Generated_Source\PSoC4/cyfitter_cfg.c **** {
 253              		.loc 1 290 0
 254              		.cfi_startproc
 255              		@ args = 0, pretend = 0, frame = 0
 256              		@ frame_needed = 0, uses_anonymous_args = 0
 257              		@ link register save eliminated.
 258              	.LVL20:
 291:Generated_Source\PSoC4/cyfitter_cfg.c **** 	uint32 regValue = CY_GET_XTND_REG32((void *)(CYREG_SAR_PUMP_CTRL));
 259              		.loc 1 291 0
 260 0000 064B     		ldr	r3, .L14
 261 0002 1B68     		ldr	r3, [r3]
 262              	.LVL21:
 292:Generated_Source\PSoC4/cyfitter_cfg.c **** 	if (enabled != 0u)
 263              		.loc 1 292 0
 264 0004 0028     		cmp	r0, #0
 265 0006 03D0     		beq	.L12
 293:Generated_Source\PSoC4/cyfitter_cfg.c **** 	{
 294:Generated_Source\PSoC4/cyfitter_cfg.c **** 		regValue |= 0x80000000u;
 266              		.loc 1 294 0
 267 0008 8022     		movs	r2, #128
ARM GAS  C:\Users\Henrique\AppData\Local\Temp\ccvZC405.s 			page 11


 268 000a 1206     		lsls	r2, r2, #24
 269 000c 1343     		orrs	r3, r2
 270              	.LVL22:
 271 000e 01E0     		b	.L13
 272              	.L12:
 295:Generated_Source\PSoC4/cyfitter_cfg.c **** 	}
 296:Generated_Source\PSoC4/cyfitter_cfg.c **** 	else
 297:Generated_Source\PSoC4/cyfitter_cfg.c **** 	{
 298:Generated_Source\PSoC4/cyfitter_cfg.c **** 		regValue &= ~0x80000000u;
 273              		.loc 1 298 0
 274 0010 5B00     		lsls	r3, r3, #1
 275              	.LVL23:
 276 0012 5B08     		lsrs	r3, r3, #1
 277              	.LVL24:
 278              	.L13:
 299:Generated_Source\PSoC4/cyfitter_cfg.c **** 	}
 300:Generated_Source\PSoC4/cyfitter_cfg.c **** 	CY_SET_XTND_REG32((void *)(CYREG_SAR_PUMP_CTRL), regValue);
 279              		.loc 1 300 0
 280 0014 014A     		ldr	r2, .L14
 281 0016 1360     		str	r3, [r2]
 301:Generated_Source\PSoC4/cyfitter_cfg.c **** }
 282              		.loc 1 301 0
 283              		@ sp needed
 284 0018 7047     		bx	lr
 285              	.L15:
 286 001a C046     		.align	2
 287              	.L14:
 288 001c 80031A40 		.word	1075446656
 289              		.cfi_endproc
 290              	.LFE6:
 291              		.size	SetAnalogRoutingPumps, .-SetAnalogRoutingPumps
 292              		.section	.text.AnalogSetDefault,"ax",%progbits
 293              		.align	2
 294              		.code	16
 295              		.thumb_func
 296              		.type	AnalogSetDefault, %function
 297              	AnalogSetDefault:
 298              	.LFB5:
 267:Generated_Source\PSoC4/cyfitter_cfg.c **** 	CY_SET_XTND_REG32((void CYFAR *)CYREG_SAR_MUX_SWITCH0, 0x00000008u);
 299              		.loc 1 267 0
 300              		.cfi_startproc
 301              		@ args = 0, pretend = 0, frame = 0
 302              		@ frame_needed = 0, uses_anonymous_args = 0
 303 0000 10B5     		push	{r4, lr}
 304              		.cfi_def_cfa_offset 8
 305              		.cfi_offset 4, -8
 306              		.cfi_offset 14, -4
 268:Generated_Source\PSoC4/cyfitter_cfg.c **** 	SetAnalogRoutingPumps(1);
 307              		.loc 1 268 0
 308 0002 0822     		movs	r2, #8
 309 0004 024B     		ldr	r3, .L17
 310 0006 1A60     		str	r2, [r3]
 269:Generated_Source\PSoC4/cyfitter_cfg.c **** }
 311              		.loc 1 269 0
 312 0008 0120     		movs	r0, #1
 313 000a FFF7FEFF 		bl	SetAnalogRoutingPumps
 314              	.LVL25:
ARM GAS  C:\Users\Henrique\AppData\Local\Temp\ccvZC405.s 			page 12


 270:Generated_Source\PSoC4/cyfitter_cfg.c **** 
 315              		.loc 1 270 0
 316              		@ sp needed
 317 000e 10BD     		pop	{r4, pc}
 318              	.L18:
 319              		.align	2
 320              	.L17:
 321 0010 00031A40 		.word	1075446528
 322              		.cfi_endproc
 323              	.LFE5:
 324              		.size	AnalogSetDefault, .-AnalogSetDefault
 325              		.section	.psocinit
 326              		.align	2
 327              		.global	cyfitter_cfg
 328              		.code	16
 329              		.thumb_func
 330              		.type	cyfitter_cfg, %function
 331              	cyfitter_cfg:
 332              	.LFB7:
 302:Generated_Source\PSoC4/cyfitter_cfg.c **** 
 303:Generated_Source\PSoC4/cyfitter_cfg.c **** 
 304:Generated_Source\PSoC4/cyfitter_cfg.c **** 
 305:Generated_Source\PSoC4/cyfitter_cfg.c **** 
 306:Generated_Source\PSoC4/cyfitter_cfg.c **** /*******************************************************************************
 307:Generated_Source\PSoC4/cyfitter_cfg.c **** * Function Name: cyfitter_cfg
 308:Generated_Source\PSoC4/cyfitter_cfg.c **** ********************************************************************************
 309:Generated_Source\PSoC4/cyfitter_cfg.c **** * Summary:
 310:Generated_Source\PSoC4/cyfitter_cfg.c **** *  This function is called by the start-up code for the selected device. It
 311:Generated_Source\PSoC4/cyfitter_cfg.c **** *  performs all of the necessary device configuration based on the design
 312:Generated_Source\PSoC4/cyfitter_cfg.c **** *  settings.  This includes settings from the Design Wide Resources (DWR) such
 313:Generated_Source\PSoC4/cyfitter_cfg.c **** *  as Clocks and Pins as well as any component configuration that is necessary.
 314:Generated_Source\PSoC4/cyfitter_cfg.c **** *
 315:Generated_Source\PSoC4/cyfitter_cfg.c **** * Parameters:
 316:Generated_Source\PSoC4/cyfitter_cfg.c **** *   void
 317:Generated_Source\PSoC4/cyfitter_cfg.c **** *
 318:Generated_Source\PSoC4/cyfitter_cfg.c **** * Return:
 319:Generated_Source\PSoC4/cyfitter_cfg.c **** *   void
 320:Generated_Source\PSoC4/cyfitter_cfg.c **** *
 321:Generated_Source\PSoC4/cyfitter_cfg.c **** *******************************************************************************/
 322:Generated_Source\PSoC4/cyfitter_cfg.c **** CY_CFG_SECTION
 323:Generated_Source\PSoC4/cyfitter_cfg.c **** void cyfitter_cfg(void)
 324:Generated_Source\PSoC4/cyfitter_cfg.c **** {
 333              		.loc 1 324 0
 334              		.cfi_startproc
 335              		@ args = 0, pretend = 0, frame = 0
 336              		@ frame_needed = 0, uses_anonymous_args = 0
 337 0090 70B5     		push	{r4, r5, r6, lr}
 338              		.cfi_def_cfa_offset 16
 339              		.cfi_offset 4, -16
 340              		.cfi_offset 5, -12
 341              		.cfi_offset 6, -8
 342              		.cfi_offset 14, -4
 325:Generated_Source\PSoC4/cyfitter_cfg.c **** 	/* Disable interrupts by default. Let user enable if/when they want. */
 326:Generated_Source\PSoC4/cyfitter_cfg.c **** 	CyGlobalIntDisable;
 343              		.loc 1 326 0
 344              		.syntax divided
 345              	@ 326 "Generated_Source\PSoC4\cyfitter_cfg.c" 1
ARM GAS  C:\Users\Henrique\AppData\Local\Temp\ccvZC405.s 			page 13


 346 0092 72B6     		CPSID   i
 347              	@ 0 "" 2
 348              	.LVL26:
 349              		.thumb
 350              		.syntax unified
 351              	.LBB3:
 327:Generated_Source\PSoC4/cyfitter_cfg.c **** 
 328:Generated_Source\PSoC4/cyfitter_cfg.c **** 	{
 329:Generated_Source\PSoC4/cyfitter_cfg.c **** 		static const uint32 CYCODE cy_cfg_addr_table[] = {
 330:Generated_Source\PSoC4/cyfitter_cfg.c **** 			0x400F0003u, /* Base address: 0x400F0000 Count: 3 */
 331:Generated_Source\PSoC4/cyfitter_cfg.c **** 			0x400F3013u, /* Base address: 0x400F3000 Count: 19 */
 332:Generated_Source\PSoC4/cyfitter_cfg.c **** 			0x400F3132u, /* Base address: 0x400F3100 Count: 50 */
 333:Generated_Source\PSoC4/cyfitter_cfg.c **** 			0x400F3269u, /* Base address: 0x400F3200 Count: 105 */
 334:Generated_Source\PSoC4/cyfitter_cfg.c **** 			0x400F334Eu, /* Base address: 0x400F3300 Count: 78 */
 335:Generated_Source\PSoC4/cyfitter_cfg.c **** 			0x400F4004u, /* Base address: 0x400F4000 Count: 4 */
 336:Generated_Source\PSoC4/cyfitter_cfg.c **** 			0x400F4104u, /* Base address: 0x400F4100 Count: 4 */
 337:Generated_Source\PSoC4/cyfitter_cfg.c **** 			0x400F6002u, /* Base address: 0x400F6000 Count: 2 */
 338:Generated_Source\PSoC4/cyfitter_cfg.c **** 		};
 339:Generated_Source\PSoC4/cyfitter_cfg.c **** 
 340:Generated_Source\PSoC4/cyfitter_cfg.c **** 		static const cy_cfg_addrvalue_t CYCODE cy_cfg_data_table[] = {
 341:Generated_Source\PSoC4/cyfitter_cfg.c **** 			{0x80u, 0x38u},
 342:Generated_Source\PSoC4/cyfitter_cfg.c **** 			{0x81u, 0x72u},
 343:Generated_Source\PSoC4/cyfitter_cfg.c **** 			{0x82u, 0x0Fu},
 344:Generated_Source\PSoC4/cyfitter_cfg.c **** 			{0x02u, 0x02u},
 345:Generated_Source\PSoC4/cyfitter_cfg.c **** 			{0x04u, 0x08u},
 346:Generated_Source\PSoC4/cyfitter_cfg.c **** 			{0x12u, 0x01u},
 347:Generated_Source\PSoC4/cyfitter_cfg.c **** 			{0x1Eu, 0x04u},
 348:Generated_Source\PSoC4/cyfitter_cfg.c **** 			{0x26u, 0x01u},
 349:Generated_Source\PSoC4/cyfitter_cfg.c **** 			{0x29u, 0x01u},
 350:Generated_Source\PSoC4/cyfitter_cfg.c **** 			{0x2Eu, 0x02u},
 351:Generated_Source\PSoC4/cyfitter_cfg.c **** 			{0x30u, 0x01u},
 352:Generated_Source\PSoC4/cyfitter_cfg.c **** 			{0x32u, 0x08u},
 353:Generated_Source\PSoC4/cyfitter_cfg.c **** 			{0x33u, 0x01u},
 354:Generated_Source\PSoC4/cyfitter_cfg.c **** 			{0x34u, 0x02u},
 355:Generated_Source\PSoC4/cyfitter_cfg.c **** 			{0x36u, 0x04u},
 356:Generated_Source\PSoC4/cyfitter_cfg.c **** 			{0x3Eu, 0x15u},
 357:Generated_Source\PSoC4/cyfitter_cfg.c **** 			{0x3Fu, 0x04u},
 358:Generated_Source\PSoC4/cyfitter_cfg.c **** 			{0x54u, 0x18u},
 359:Generated_Source\PSoC4/cyfitter_cfg.c **** 			{0x58u, 0x04u},
 360:Generated_Source\PSoC4/cyfitter_cfg.c **** 			{0x59u, 0x04u},
 361:Generated_Source\PSoC4/cyfitter_cfg.c **** 			{0x5Bu, 0x04u},
 362:Generated_Source\PSoC4/cyfitter_cfg.c **** 			{0x5Fu, 0x01u},
 363:Generated_Source\PSoC4/cyfitter_cfg.c **** 			{0x00u, 0x08u},
 364:Generated_Source\PSoC4/cyfitter_cfg.c **** 			{0x02u, 0x80u},
 365:Generated_Source\PSoC4/cyfitter_cfg.c **** 			{0x04u, 0x98u},
 366:Generated_Source\PSoC4/cyfitter_cfg.c **** 			{0x05u, 0x01u},
 367:Generated_Source\PSoC4/cyfitter_cfg.c **** 			{0x09u, 0x02u},
 368:Generated_Source\PSoC4/cyfitter_cfg.c **** 			{0x0Bu, 0x01u},
 369:Generated_Source\PSoC4/cyfitter_cfg.c **** 			{0x0Du, 0x28u},
 370:Generated_Source\PSoC4/cyfitter_cfg.c **** 			{0x0Eu, 0x02u},
 371:Generated_Source\PSoC4/cyfitter_cfg.c **** 			{0x0Fu, 0x40u},
 372:Generated_Source\PSoC4/cyfitter_cfg.c **** 			{0x10u, 0x22u},
 373:Generated_Source\PSoC4/cyfitter_cfg.c **** 			{0x16u, 0x14u},
 374:Generated_Source\PSoC4/cyfitter_cfg.c **** 			{0x17u, 0x02u},
 375:Generated_Source\PSoC4/cyfitter_cfg.c **** 			{0x18u, 0x04u},
 376:Generated_Source\PSoC4/cyfitter_cfg.c **** 			{0x19u, 0x88u},
 377:Generated_Source\PSoC4/cyfitter_cfg.c **** 			{0x1Bu, 0x01u},
ARM GAS  C:\Users\Henrique\AppData\Local\Temp\ccvZC405.s 			page 14


 378:Generated_Source\PSoC4/cyfitter_cfg.c **** 			{0x1Du, 0x2Au},
 379:Generated_Source\PSoC4/cyfitter_cfg.c **** 			{0x1Eu, 0x01u},
 380:Generated_Source\PSoC4/cyfitter_cfg.c **** 			{0x1Fu, 0x28u},
 381:Generated_Source\PSoC4/cyfitter_cfg.c **** 			{0x23u, 0x10u},
 382:Generated_Source\PSoC4/cyfitter_cfg.c **** 			{0x26u, 0xA7u},
 383:Generated_Source\PSoC4/cyfitter_cfg.c **** 			{0x27u, 0x08u},
 384:Generated_Source\PSoC4/cyfitter_cfg.c **** 			{0x29u, 0x20u},
 385:Generated_Source\PSoC4/cyfitter_cfg.c **** 			{0x2Du, 0x80u},
 386:Generated_Source\PSoC4/cyfitter_cfg.c **** 			{0x2Fu, 0x28u},
 387:Generated_Source\PSoC4/cyfitter_cfg.c **** 			{0x36u, 0x2Au},
 388:Generated_Source\PSoC4/cyfitter_cfg.c **** 			{0x3Eu, 0xAAu},
 389:Generated_Source\PSoC4/cyfitter_cfg.c **** 			{0x45u, 0x22u},
 390:Generated_Source\PSoC4/cyfitter_cfg.c **** 			{0x47u, 0x48u},
 391:Generated_Source\PSoC4/cyfitter_cfg.c **** 			{0x4Cu, 0x24u},
 392:Generated_Source\PSoC4/cyfitter_cfg.c **** 			{0x4Eu, 0x08u},
 393:Generated_Source\PSoC4/cyfitter_cfg.c **** 			{0x54u, 0x02u},
 394:Generated_Source\PSoC4/cyfitter_cfg.c **** 			{0x5Au, 0x01u},
 395:Generated_Source\PSoC4/cyfitter_cfg.c **** 			{0x5Eu, 0x08u},
 396:Generated_Source\PSoC4/cyfitter_cfg.c **** 			{0x60u, 0x04u},
 397:Generated_Source\PSoC4/cyfitter_cfg.c **** 			{0x63u, 0x02u},
 398:Generated_Source\PSoC4/cyfitter_cfg.c **** 			{0x6Eu, 0x14u},
 399:Generated_Source\PSoC4/cyfitter_cfg.c **** 			{0x6Fu, 0x01u},
 400:Generated_Source\PSoC4/cyfitter_cfg.c **** 			{0x76u, 0x3Eu},
 401:Generated_Source\PSoC4/cyfitter_cfg.c **** 			{0x77u, 0x02u},
 402:Generated_Source\PSoC4/cyfitter_cfg.c **** 			{0x87u, 0x10u},
 403:Generated_Source\PSoC4/cyfitter_cfg.c **** 			{0xC0u, 0xFCu},
 404:Generated_Source\PSoC4/cyfitter_cfg.c **** 			{0xC2u, 0xF9u},
 405:Generated_Source\PSoC4/cyfitter_cfg.c **** 			{0xC4u, 0x75u},
 406:Generated_Source\PSoC4/cyfitter_cfg.c **** 			{0xCAu, 0x74u},
 407:Generated_Source\PSoC4/cyfitter_cfg.c **** 			{0xCCu, 0xE0u},
 408:Generated_Source\PSoC4/cyfitter_cfg.c **** 			{0xCEu, 0xF0u},
 409:Generated_Source\PSoC4/cyfitter_cfg.c **** 			{0xD0u, 0xF0u},
 410:Generated_Source\PSoC4/cyfitter_cfg.c **** 			{0xD2u, 0x20u},
 411:Generated_Source\PSoC4/cyfitter_cfg.c **** 			{0xD6u, 0x41u},
 412:Generated_Source\PSoC4/cyfitter_cfg.c **** 			{0xD8u, 0x0Cu},
 413:Generated_Source\PSoC4/cyfitter_cfg.c **** 			{0x00u, 0x13u},
 414:Generated_Source\PSoC4/cyfitter_cfg.c **** 			{0x01u, 0x01u},
 415:Generated_Source\PSoC4/cyfitter_cfg.c **** 			{0x02u, 0x04u},
 416:Generated_Source\PSoC4/cyfitter_cfg.c **** 			{0x03u, 0x0Au},
 417:Generated_Source\PSoC4/cyfitter_cfg.c **** 			{0x04u, 0x0Au},
 418:Generated_Source\PSoC4/cyfitter_cfg.c **** 			{0x05u, 0x13u},
 419:Generated_Source\PSoC4/cyfitter_cfg.c **** 			{0x06u, 0x14u},
 420:Generated_Source\PSoC4/cyfitter_cfg.c **** 			{0x08u, 0x13u},
 421:Generated_Source\PSoC4/cyfitter_cfg.c **** 			{0x09u, 0x13u},
 422:Generated_Source\PSoC4/cyfitter_cfg.c **** 			{0x0Au, 0x0Cu},
 423:Generated_Source\PSoC4/cyfitter_cfg.c **** 			{0x0Cu, 0x40u},
 424:Generated_Source\PSoC4/cyfitter_cfg.c **** 			{0x0Eu, 0x20u},
 425:Generated_Source\PSoC4/cyfitter_cfg.c **** 			{0x11u, 0x10u},
 426:Generated_Source\PSoC4/cyfitter_cfg.c **** 			{0x12u, 0x08u},
 427:Generated_Source\PSoC4/cyfitter_cfg.c **** 			{0x14u, 0x20u},
 428:Generated_Source\PSoC4/cyfitter_cfg.c **** 			{0x16u, 0xC0u},
 429:Generated_Source\PSoC4/cyfitter_cfg.c **** 			{0x18u, 0xE0u},
 430:Generated_Source\PSoC4/cyfitter_cfg.c **** 			{0x19u, 0x02u},
 431:Generated_Source\PSoC4/cyfitter_cfg.c **** 			{0x1Bu, 0x09u},
 432:Generated_Source\PSoC4/cyfitter_cfg.c **** 			{0x1Cu, 0x03u},
 433:Generated_Source\PSoC4/cyfitter_cfg.c **** 			{0x1Eu, 0x14u},
 434:Generated_Source\PSoC4/cyfitter_cfg.c **** 			{0x26u, 0x15u},
ARM GAS  C:\Users\Henrique\AppData\Local\Temp\ccvZC405.s 			page 15


 435:Generated_Source\PSoC4/cyfitter_cfg.c **** 			{0x28u, 0x80u},
 436:Generated_Source\PSoC4/cyfitter_cfg.c **** 			{0x2Au, 0x20u},
 437:Generated_Source\PSoC4/cyfitter_cfg.c **** 			{0x2Bu, 0x04u},
 438:Generated_Source\PSoC4/cyfitter_cfg.c **** 			{0x2Cu, 0xE0u},
 439:Generated_Source\PSoC4/cyfitter_cfg.c **** 			{0x30u, 0x10u},
 440:Generated_Source\PSoC4/cyfitter_cfg.c **** 			{0x31u, 0x0Cu},
 441:Generated_Source\PSoC4/cyfitter_cfg.c **** 			{0x32u, 0xE0u},
 442:Generated_Source\PSoC4/cyfitter_cfg.c **** 			{0x33u, 0x03u},
 443:Generated_Source\PSoC4/cyfitter_cfg.c **** 			{0x34u, 0x0Fu},
 444:Generated_Source\PSoC4/cyfitter_cfg.c **** 			{0x35u, 0x10u},
 445:Generated_Source\PSoC4/cyfitter_cfg.c **** 			{0x3Au, 0x20u},
 446:Generated_Source\PSoC4/cyfitter_cfg.c **** 			{0x3Eu, 0x01u},
 447:Generated_Source\PSoC4/cyfitter_cfg.c **** 			{0x3Fu, 0x01u},
 448:Generated_Source\PSoC4/cyfitter_cfg.c **** 			{0x40u, 0x36u},
 449:Generated_Source\PSoC4/cyfitter_cfg.c **** 			{0x41u, 0x01u},
 450:Generated_Source\PSoC4/cyfitter_cfg.c **** 			{0x46u, 0xB0u},
 451:Generated_Source\PSoC4/cyfitter_cfg.c **** 			{0x47u, 0xCEu},
 452:Generated_Source\PSoC4/cyfitter_cfg.c **** 			{0x48u, 0x38u},
 453:Generated_Source\PSoC4/cyfitter_cfg.c **** 			{0x49u, 0xFFu},
 454:Generated_Source\PSoC4/cyfitter_cfg.c **** 			{0x4Au, 0xFFu},
 455:Generated_Source\PSoC4/cyfitter_cfg.c **** 			{0x4Bu, 0xFFu},
 456:Generated_Source\PSoC4/cyfitter_cfg.c **** 			{0x4Eu, 0xF0u},
 457:Generated_Source\PSoC4/cyfitter_cfg.c **** 			{0x4Fu, 0x44u},
 458:Generated_Source\PSoC4/cyfitter_cfg.c **** 			{0x50u, 0x0Cu},
 459:Generated_Source\PSoC4/cyfitter_cfg.c **** 			{0x54u, 0x01u},
 460:Generated_Source\PSoC4/cyfitter_cfg.c **** 			{0x58u, 0x04u},
 461:Generated_Source\PSoC4/cyfitter_cfg.c **** 			{0x59u, 0x04u},
 462:Generated_Source\PSoC4/cyfitter_cfg.c **** 			{0x5Au, 0x04u},
 463:Generated_Source\PSoC4/cyfitter_cfg.c **** 			{0x5Bu, 0x04u},
 464:Generated_Source\PSoC4/cyfitter_cfg.c **** 			{0x5Fu, 0x01u},
 465:Generated_Source\PSoC4/cyfitter_cfg.c **** 			{0x66u, 0xC0u},
 466:Generated_Source\PSoC4/cyfitter_cfg.c **** 			{0x6Au, 0x40u},
 467:Generated_Source\PSoC4/cyfitter_cfg.c **** 			{0x6Bu, 0x02u},
 468:Generated_Source\PSoC4/cyfitter_cfg.c **** 			{0x84u, 0x14u},
 469:Generated_Source\PSoC4/cyfitter_cfg.c **** 			{0x85u, 0x80u},
 470:Generated_Source\PSoC4/cyfitter_cfg.c **** 			{0x87u, 0x13u},
 471:Generated_Source\PSoC4/cyfitter_cfg.c **** 			{0x8Au, 0x03u},
 472:Generated_Source\PSoC4/cyfitter_cfg.c **** 			{0x8Cu, 0x0Cu},
 473:Generated_Source\PSoC4/cyfitter_cfg.c **** 			{0x8Eu, 0x71u},
 474:Generated_Source\PSoC4/cyfitter_cfg.c **** 			{0x8Fu, 0x0Cu},
 475:Generated_Source\PSoC4/cyfitter_cfg.c **** 			{0x90u, 0x09u},
 476:Generated_Source\PSoC4/cyfitter_cfg.c **** 			{0x92u, 0xD0u},
 477:Generated_Source\PSoC4/cyfitter_cfg.c **** 			{0x94u, 0xDCu},
 478:Generated_Source\PSoC4/cyfitter_cfg.c **** 			{0x95u, 0x2Cu},
 479:Generated_Source\PSoC4/cyfitter_cfg.c **** 			{0x96u, 0x22u},
 480:Generated_Source\PSoC4/cyfitter_cfg.c **** 			{0x97u, 0x43u},
 481:Generated_Source\PSoC4/cyfitter_cfg.c **** 			{0x99u, 0x71u},
 482:Generated_Source\PSoC4/cyfitter_cfg.c **** 			{0x9Bu, 0x06u},
 483:Generated_Source\PSoC4/cyfitter_cfg.c **** 			{0x9Fu, 0x08u},
 484:Generated_Source\PSoC4/cyfitter_cfg.c **** 			{0xA0u, 0x10u},
 485:Generated_Source\PSoC4/cyfitter_cfg.c **** 			{0xA1u, 0x71u},
 486:Generated_Source\PSoC4/cyfitter_cfg.c **** 			{0xA2u, 0x40u},
 487:Generated_Source\PSoC4/cyfitter_cfg.c **** 			{0xA3u, 0x0Eu},
 488:Generated_Source\PSoC4/cyfitter_cfg.c **** 			{0xA4u, 0x10u},
 489:Generated_Source\PSoC4/cyfitter_cfg.c **** 			{0xA6u, 0xACu},
 490:Generated_Source\PSoC4/cyfitter_cfg.c **** 			{0xAAu, 0x20u},
 491:Generated_Source\PSoC4/cyfitter_cfg.c **** 			{0xB0u, 0xE0u},
ARM GAS  C:\Users\Henrique\AppData\Local\Temp\ccvZC405.s 			page 16


 492:Generated_Source\PSoC4/cyfitter_cfg.c **** 			{0xB1u, 0xC0u},
 493:Generated_Source\PSoC4/cyfitter_cfg.c **** 			{0xB3u, 0x0Fu},
 494:Generated_Source\PSoC4/cyfitter_cfg.c **** 			{0xB4u, 0x1Fu},
 495:Generated_Source\PSoC4/cyfitter_cfg.c **** 			{0xB5u, 0x30u},
 496:Generated_Source\PSoC4/cyfitter_cfg.c **** 			{0xB9u, 0x22u},
 497:Generated_Source\PSoC4/cyfitter_cfg.c **** 			{0xBAu, 0x02u},
 498:Generated_Source\PSoC4/cyfitter_cfg.c **** 			{0xBBu, 0x08u},
 499:Generated_Source\PSoC4/cyfitter_cfg.c **** 			{0xBFu, 0x10u},
 500:Generated_Source\PSoC4/cyfitter_cfg.c **** 			{0xC0u, 0x02u},
 501:Generated_Source\PSoC4/cyfitter_cfg.c **** 			{0xC6u, 0x04u},
 502:Generated_Source\PSoC4/cyfitter_cfg.c **** 			{0xC9u, 0xFFu},
 503:Generated_Source\PSoC4/cyfitter_cfg.c **** 			{0xCAu, 0x07u},
 504:Generated_Source\PSoC4/cyfitter_cfg.c **** 			{0xCBu, 0xFFu},
 505:Generated_Source\PSoC4/cyfitter_cfg.c **** 			{0xCCu, 0x40u},
 506:Generated_Source\PSoC4/cyfitter_cfg.c **** 			{0xCDu, 0x20u},
 507:Generated_Source\PSoC4/cyfitter_cfg.c **** 			{0xCEu, 0xF0u},
 508:Generated_Source\PSoC4/cyfitter_cfg.c **** 			{0xCFu, 0x05u},
 509:Generated_Source\PSoC4/cyfitter_cfg.c **** 			{0xD0u, 0x08u},
 510:Generated_Source\PSoC4/cyfitter_cfg.c **** 			{0xD8u, 0x04u},
 511:Generated_Source\PSoC4/cyfitter_cfg.c **** 			{0xD9u, 0x04u},
 512:Generated_Source\PSoC4/cyfitter_cfg.c **** 			{0xDAu, 0x04u},
 513:Generated_Source\PSoC4/cyfitter_cfg.c **** 			{0xDFu, 0x01u},
 514:Generated_Source\PSoC4/cyfitter_cfg.c **** 			{0xE0u, 0x40u},
 515:Generated_Source\PSoC4/cyfitter_cfg.c **** 			{0xE1u, 0xA8u},
 516:Generated_Source\PSoC4/cyfitter_cfg.c **** 			{0xE2u, 0x40u},
 517:Generated_Source\PSoC4/cyfitter_cfg.c **** 			{0xE3u, 0x20u},
 518:Generated_Source\PSoC4/cyfitter_cfg.c **** 			{0x00u, 0x40u},
 519:Generated_Source\PSoC4/cyfitter_cfg.c **** 			{0x01u, 0x20u},
 520:Generated_Source\PSoC4/cyfitter_cfg.c **** 			{0x02u, 0x10u},
 521:Generated_Source\PSoC4/cyfitter_cfg.c **** 			{0x04u, 0x80u},
 522:Generated_Source\PSoC4/cyfitter_cfg.c **** 			{0x05u, 0x15u},
 523:Generated_Source\PSoC4/cyfitter_cfg.c **** 			{0x09u, 0x08u},
 524:Generated_Source\PSoC4/cyfitter_cfg.c **** 			{0x0Bu, 0x40u},
 525:Generated_Source\PSoC4/cyfitter_cfg.c **** 			{0x0Eu, 0x24u},
 526:Generated_Source\PSoC4/cyfitter_cfg.c **** 			{0x0Fu, 0x42u},
 527:Generated_Source\PSoC4/cyfitter_cfg.c **** 			{0x10u, 0x90u},
 528:Generated_Source\PSoC4/cyfitter_cfg.c **** 			{0x12u, 0x08u},
 529:Generated_Source\PSoC4/cyfitter_cfg.c **** 			{0x15u, 0x88u},
 530:Generated_Source\PSoC4/cyfitter_cfg.c **** 			{0x17u, 0x10u},
 531:Generated_Source\PSoC4/cyfitter_cfg.c **** 			{0x18u, 0x40u},
 532:Generated_Source\PSoC4/cyfitter_cfg.c **** 			{0x19u, 0x21u},
 533:Generated_Source\PSoC4/cyfitter_cfg.c **** 			{0x1Cu, 0x10u},
 534:Generated_Source\PSoC4/cyfitter_cfg.c **** 			{0x1Du, 0x10u},
 535:Generated_Source\PSoC4/cyfitter_cfg.c **** 			{0x1Eu, 0x60u},
 536:Generated_Source\PSoC4/cyfitter_cfg.c **** 			{0x1Fu, 0x04u},
 537:Generated_Source\PSoC4/cyfitter_cfg.c **** 			{0x20u, 0x04u},
 538:Generated_Source\PSoC4/cyfitter_cfg.c **** 			{0x21u, 0x08u},
 539:Generated_Source\PSoC4/cyfitter_cfg.c **** 			{0x23u, 0x40u},
 540:Generated_Source\PSoC4/cyfitter_cfg.c **** 			{0x24u, 0x08u},
 541:Generated_Source\PSoC4/cyfitter_cfg.c **** 			{0x27u, 0x50u},
 542:Generated_Source\PSoC4/cyfitter_cfg.c **** 			{0x29u, 0x01u},
 543:Generated_Source\PSoC4/cyfitter_cfg.c **** 			{0x2Au, 0x02u},
 544:Generated_Source\PSoC4/cyfitter_cfg.c **** 			{0x2Fu, 0x04u},
 545:Generated_Source\PSoC4/cyfitter_cfg.c **** 			{0x30u, 0x90u},
 546:Generated_Source\PSoC4/cyfitter_cfg.c **** 			{0x31u, 0x1Cu},
 547:Generated_Source\PSoC4/cyfitter_cfg.c **** 			{0x37u, 0x11u},
 548:Generated_Source\PSoC4/cyfitter_cfg.c **** 			{0x39u, 0x08u},
ARM GAS  C:\Users\Henrique\AppData\Local\Temp\ccvZC405.s 			page 17


 549:Generated_Source\PSoC4/cyfitter_cfg.c **** 			{0x3Bu, 0x40u},
 550:Generated_Source\PSoC4/cyfitter_cfg.c **** 			{0x3Eu, 0x14u},
 551:Generated_Source\PSoC4/cyfitter_cfg.c **** 			{0x3Fu, 0x01u},
 552:Generated_Source\PSoC4/cyfitter_cfg.c **** 			{0x40u, 0x04u},
 553:Generated_Source\PSoC4/cyfitter_cfg.c **** 			{0x44u, 0x10u},
 554:Generated_Source\PSoC4/cyfitter_cfg.c **** 			{0x46u, 0x02u},
 555:Generated_Source\PSoC4/cyfitter_cfg.c **** 			{0x4Eu, 0x08u},
 556:Generated_Source\PSoC4/cyfitter_cfg.c **** 			{0x50u, 0x80u},
 557:Generated_Source\PSoC4/cyfitter_cfg.c **** 			{0x51u, 0x04u},
 558:Generated_Source\PSoC4/cyfitter_cfg.c **** 			{0x52u, 0x08u},
 559:Generated_Source\PSoC4/cyfitter_cfg.c **** 			{0x54u, 0x04u},
 560:Generated_Source\PSoC4/cyfitter_cfg.c **** 			{0x56u, 0x10u},
 561:Generated_Source\PSoC4/cyfitter_cfg.c **** 			{0x57u, 0x01u},
 562:Generated_Source\PSoC4/cyfitter_cfg.c **** 			{0x5Du, 0x18u},
 563:Generated_Source\PSoC4/cyfitter_cfg.c **** 			{0x5Eu, 0x40u},
 564:Generated_Source\PSoC4/cyfitter_cfg.c **** 			{0x5Fu, 0x02u},
 565:Generated_Source\PSoC4/cyfitter_cfg.c **** 			{0x80u, 0x40u},
 566:Generated_Source\PSoC4/cyfitter_cfg.c **** 			{0x82u, 0x80u},
 567:Generated_Source\PSoC4/cyfitter_cfg.c **** 			{0x83u, 0x01u},
 568:Generated_Source\PSoC4/cyfitter_cfg.c **** 			{0x84u, 0x04u},
 569:Generated_Source\PSoC4/cyfitter_cfg.c **** 			{0x87u, 0x02u},
 570:Generated_Source\PSoC4/cyfitter_cfg.c **** 			{0x89u, 0x10u},
 571:Generated_Source\PSoC4/cyfitter_cfg.c **** 			{0x8Bu, 0x01u},
 572:Generated_Source\PSoC4/cyfitter_cfg.c **** 			{0x91u, 0x80u},
 573:Generated_Source\PSoC4/cyfitter_cfg.c **** 			{0x92u, 0x14u},
 574:Generated_Source\PSoC4/cyfitter_cfg.c **** 			{0x94u, 0x98u},
 575:Generated_Source\PSoC4/cyfitter_cfg.c **** 			{0x97u, 0x01u},
 576:Generated_Source\PSoC4/cyfitter_cfg.c **** 			{0x99u, 0x08u},
 577:Generated_Source\PSoC4/cyfitter_cfg.c **** 			{0x9Bu, 0x01u},
 578:Generated_Source\PSoC4/cyfitter_cfg.c **** 			{0x9Du, 0x20u},
 579:Generated_Source\PSoC4/cyfitter_cfg.c **** 			{0x9Eu, 0x80u},
 580:Generated_Source\PSoC4/cyfitter_cfg.c **** 			{0x9Fu, 0x50u},
 581:Generated_Source\PSoC4/cyfitter_cfg.c **** 			{0xA4u, 0x04u},
 582:Generated_Source\PSoC4/cyfitter_cfg.c **** 			{0xB2u, 0x20u},
 583:Generated_Source\PSoC4/cyfitter_cfg.c **** 			{0xB3u, 0x40u},
 584:Generated_Source\PSoC4/cyfitter_cfg.c **** 			{0xB5u, 0x41u},
 585:Generated_Source\PSoC4/cyfitter_cfg.c **** 			{0xB6u, 0x10u},
 586:Generated_Source\PSoC4/cyfitter_cfg.c **** 			{0xB7u, 0x10u},
 587:Generated_Source\PSoC4/cyfitter_cfg.c **** 			{0xC0u, 0xF7u},
 588:Generated_Source\PSoC4/cyfitter_cfg.c **** 			{0xC2u, 0xFCu},
 589:Generated_Source\PSoC4/cyfitter_cfg.c **** 			{0xC4u, 0xEEu},
 590:Generated_Source\PSoC4/cyfitter_cfg.c **** 			{0xCAu, 0x21u},
 591:Generated_Source\PSoC4/cyfitter_cfg.c **** 			{0xCCu, 0xAEu},
 592:Generated_Source\PSoC4/cyfitter_cfg.c **** 			{0xCEu, 0xEAu},
 593:Generated_Source\PSoC4/cyfitter_cfg.c **** 			{0xD0u, 0x54u},
 594:Generated_Source\PSoC4/cyfitter_cfg.c **** 			{0xD2u, 0x20u},
 595:Generated_Source\PSoC4/cyfitter_cfg.c **** 			{0xD6u, 0xF0u},
 596:Generated_Source\PSoC4/cyfitter_cfg.c **** 			{0x67u, 0x80u},
 597:Generated_Source\PSoC4/cyfitter_cfg.c **** 			{0x87u, 0x40u},
 598:Generated_Source\PSoC4/cyfitter_cfg.c **** 			{0xD8u, 0x80u},
 599:Generated_Source\PSoC4/cyfitter_cfg.c **** 			{0xE2u, 0x10u},
 600:Generated_Source\PSoC4/cyfitter_cfg.c **** 			{0x0Eu, 0x10u},
 601:Generated_Source\PSoC4/cyfitter_cfg.c **** 			{0x82u, 0x10u},
 602:Generated_Source\PSoC4/cyfitter_cfg.c **** 			{0xC2u, 0x20u},
 603:Generated_Source\PSoC4/cyfitter_cfg.c **** 			{0xE0u, 0x80u},
 604:Generated_Source\PSoC4/cyfitter_cfg.c **** 			{0x10u, 0x01u},
 605:Generated_Source\PSoC4/cyfitter_cfg.c **** 			{0x11u, 0x01u},
ARM GAS  C:\Users\Henrique\AppData\Local\Temp\ccvZC405.s 			page 18


 606:Generated_Source\PSoC4/cyfitter_cfg.c **** 		};
 607:Generated_Source\PSoC4/cyfitter_cfg.c **** 
 608:Generated_Source\PSoC4/cyfitter_cfg.c **** 
 609:Generated_Source\PSoC4/cyfitter_cfg.c **** 
 610:Generated_Source\PSoC4/cyfitter_cfg.c **** 		CYPACKED typedef struct {
 611:Generated_Source\PSoC4/cyfitter_cfg.c **** 			void CYFAR *address;
 612:Generated_Source\PSoC4/cyfitter_cfg.c **** 			uint16 size;
 613:Generated_Source\PSoC4/cyfitter_cfg.c **** 		} CYPACKED_ATTR cfg_memset_t;
 614:Generated_Source\PSoC4/cyfitter_cfg.c **** 
 615:Generated_Source\PSoC4/cyfitter_cfg.c **** 
 616:Generated_Source\PSoC4/cyfitter_cfg.c **** 		CYPACKED typedef struct {
 617:Generated_Source\PSoC4/cyfitter_cfg.c **** 			void CYFAR *dest;
 618:Generated_Source\PSoC4/cyfitter_cfg.c **** 			const void CYCODE *src;
 619:Generated_Source\PSoC4/cyfitter_cfg.c **** 			uint16 size;
 620:Generated_Source\PSoC4/cyfitter_cfg.c **** 		} CYPACKED_ATTR cfg_memcpy_t;
 621:Generated_Source\PSoC4/cyfitter_cfg.c **** 
 622:Generated_Source\PSoC4/cyfitter_cfg.c **** 		static const cfg_memset_t CYCODE cfg_memset_list[] = {
 623:Generated_Source\PSoC4/cyfitter_cfg.c **** 			/* address, size */
 624:Generated_Source\PSoC4/cyfitter_cfg.c **** 			{(void CYFAR *)(CYDEV_UDB_P0_U0_BASE), 128u},
 625:Generated_Source\PSoC4/cyfitter_cfg.c **** 			{(void CYFAR *)(CYDEV_UDB_P0_ROUTE_BASE), 768u},
 626:Generated_Source\PSoC4/cyfitter_cfg.c **** 			{(void CYFAR *)(CYDEV_UDB_DSI0_BASE), 1024u},
 627:Generated_Source\PSoC4/cyfitter_cfg.c **** 		};
 628:Generated_Source\PSoC4/cyfitter_cfg.c **** 
 629:Generated_Source\PSoC4/cyfitter_cfg.c **** 		/* UDB_0_1_1_CONFIG Address: CYDEV_UDB_P0_U1_BASE Size (bytes): 128 */
 630:Generated_Source\PSoC4/cyfitter_cfg.c **** 		static const uint8 CYCODE BS_UDB_0_1_1_CONFIG_VAL[] = {
 631:Generated_Source\PSoC4/cyfitter_cfg.c **** 			0x82u, 0x10u, 0x00u, 0x00u, 0x00u, 0x08u, 0xF3u, 0x00u, 0xC3u, 0x18u, 0x00u, 0x00u, 0x41u, 0x04u
 632:Generated_Source\PSoC4/cyfitter_cfg.c **** 			0xFFu, 0x3Cu, 0x00u, 0x42u, 0x0Fu, 0x00u, 0xF0u, 0x03u, 0xF3u, 0x7Fu, 0x0Cu, 0x00u, 0x1Cu, 0x00u
 633:Generated_Source\PSoC4/cyfitter_cfg.c **** 			0x08u, 0x00u, 0x00u, 0x00u, 0x0Cu, 0x67u, 0x00u, 0x18u, 0x04u, 0x3Cu, 0x00u, 0x41u, 0x00u, 0x00u
 634:Generated_Source\PSoC4/cyfitter_cfg.c **** 			0x1Cu, 0x1Fu, 0x2Cu, 0x20u, 0x0Fu, 0x00u, 0xC0u, 0x40u, 0x00u, 0x80u, 0x28u, 0x22u, 0x00u, 0x00u
 635:Generated_Source\PSoC4/cyfitter_cfg.c **** 			0x26u, 0x03u, 0x04u, 0x00u, 0x01u, 0x0Cu, 0x00u, 0xE0u, 0x21u, 0xFFu, 0xFFu, 0xFFu, 0x62u, 0xA0u
 636:Generated_Source\PSoC4/cyfitter_cfg.c **** 			0x0Cu, 0x00u, 0x00u, 0x00u, 0x00u, 0x00u, 0x02u, 0x12u, 0x04u, 0x04u, 0x04u, 0x04u, 0x00u, 0x00u
 637:Generated_Source\PSoC4/cyfitter_cfg.c **** 			0x00u, 0x00u, 0x00u, 0x00u, 0x00u, 0x00u, 0x40u, 0x02u, 0x00u, 0x10u, 0x30u, 0x10u, 0x00u, 0x10u
 638:Generated_Source\PSoC4/cyfitter_cfg.c **** 			0x00u, 0x00u, 0x00u, 0x00u, 0x00u, 0x00u, 0x00u, 0x00u, 0x00u, 0x00u, 0x00u, 0x00u, 0x00u, 0x00u
 639:Generated_Source\PSoC4/cyfitter_cfg.c **** 
 640:Generated_Source\PSoC4/cyfitter_cfg.c **** 		static const cfg_memcpy_t CYCODE cfg_memcpy_list [] = {
 641:Generated_Source\PSoC4/cyfitter_cfg.c **** 			/* dest, src, size */
 642:Generated_Source\PSoC4/cyfitter_cfg.c **** 			{(void CYFAR *)(CYDEV_UDB_P0_U1_BASE), BS_UDB_0_1_1_CONFIG_VAL, 128u},
 643:Generated_Source\PSoC4/cyfitter_cfg.c **** 		};
 644:Generated_Source\PSoC4/cyfitter_cfg.c **** 
 645:Generated_Source\PSoC4/cyfitter_cfg.c **** 		uint8 CYDATA i;
 646:Generated_Source\PSoC4/cyfitter_cfg.c **** 
 647:Generated_Source\PSoC4/cyfitter_cfg.c **** 		/* Zero out critical memory blocks before beginning configuration */
 648:Generated_Source\PSoC4/cyfitter_cfg.c **** 		for (i = 0u; i < (sizeof(cfg_memset_list)/sizeof(cfg_memset_list[0])); i++)
 352              		.loc 1 648 0
 353 0094 0024     		movs	r4, #0
 354 0096 0FE0     		b	.L20
 355              	.LVL27:
 356              	.L21:
 357              	.LBB4:
 649:Generated_Source\PSoC4/cyfitter_cfg.c **** 		{
 650:Generated_Source\PSoC4/cyfitter_cfg.c **** 			const cfg_memset_t CYCODE * CYDATA ms = &cfg_memset_list[i];
 651:Generated_Source\PSoC4/cyfitter_cfg.c **** 			CYMEMZERO(ms->address, (size_t)(uint32)(ms->size));
 358              		.loc 1 651 0 discriminator 3
 359 0098 3C48     		ldr	r0, .L24
 360 009a 6200     		lsls	r2, r4, #1
 361 009c 1319     		adds	r3, r2, r4
 362 009e 5900     		lsls	r1, r3, #1
ARM GAS  C:\Users\Henrique\AppData\Local\Temp\ccvZC405.s 			page 19


 363 00a0 0B00     		movs	r3, r1
 364 00a2 4118     		adds	r1, r0, r1
 365 00a4 8988     		ldrh	r1, [r1, #4]
 366 00a6 1A5A     		ldrh	r2, [r3, r0]
 367 00a8 C318     		adds	r3, r0, r3
 368 00aa 5888     		ldrh	r0, [r3, #2]
 369 00ac 0004     		lsls	r0, r0, #16
 370 00ae 1043     		orrs	r0, r2
 371 00b0 FFF7FEFF 		bl	CYMEMZERO
 372              	.LVL28:
 373              	.LBE4:
 648:Generated_Source\PSoC4/cyfitter_cfg.c **** 		{
 374              		.loc 1 648 0 discriminator 3
 375 00b4 0134     		adds	r4, r4, #1
 376              	.LVL29:
 377 00b6 E4B2     		uxtb	r4, r4
 378              	.LVL30:
 379              	.L20:
 648:Generated_Source\PSoC4/cyfitter_cfg.c **** 		{
 380              		.loc 1 648 0 is_stmt 0 discriminator 1
 381 00b8 022C     		cmp	r4, #2
 382 00ba EDD9     		bls	.L21
 383 00bc 0024     		movs	r4, #0
 384              	.LVL31:
 385 00be 11E0     		b	.L22
 386              	.LVL32:
 387              	.L23:
 388              	.LBB5:
 652:Generated_Source\PSoC4/cyfitter_cfg.c **** 		}
 653:Generated_Source\PSoC4/cyfitter_cfg.c **** 
 654:Generated_Source\PSoC4/cyfitter_cfg.c **** 		/* Copy device configuration data into registers */
 655:Generated_Source\PSoC4/cyfitter_cfg.c **** 		for (i = 0u; i < (sizeof(cfg_memcpy_list)/sizeof(cfg_memcpy_list[0])); i++)
 656:Generated_Source\PSoC4/cyfitter_cfg.c **** 		{
 657:Generated_Source\PSoC4/cyfitter_cfg.c **** 			const cfg_memcpy_t CYCODE * CYDATA mc = &cfg_memcpy_list[i];
 658:Generated_Source\PSoC4/cyfitter_cfg.c **** 			void * CYDATA destPtr = mc->dest;
 389              		.loc 1 658 0 is_stmt 1 discriminator 3
 390 00c0 324E     		ldr	r6, .L24
 391 00c2 A200     		lsls	r2, r4, #2
 392 00c4 1319     		adds	r3, r2, r4
 393 00c6 5900     		lsls	r1, r3, #1
 394 00c8 7118     		adds	r1, r6, r1
 395 00ca 8D8A     		ldrh	r5, [r1, #20]
 396 00cc C88A     		ldrh	r0, [r1, #22]
 397 00ce 0004     		lsls	r0, r0, #16
 398 00d0 2843     		orrs	r0, r5
 399              	.LVL33:
 659:Generated_Source\PSoC4/cyfitter_cfg.c **** 			const void CYCODE * CYDATA srcPtr = mc->src;
 400              		.loc 1 659 0 discriminator 3
 401 00d2 0A8B     		ldrh	r2, [r1, #24]
 402 00d4 498B     		ldrh	r1, [r1, #26]
 403 00d6 0904     		lsls	r1, r1, #16
 404 00d8 1143     		orrs	r1, r2
 405              	.LVL34:
 660:Generated_Source\PSoC4/cyfitter_cfg.c **** 			uint16 CYDATA numBytes = mc->size;
 661:Generated_Source\PSoC4/cyfitter_cfg.c **** 			CYCONFIGCPYCODE(destPtr, srcPtr, numBytes);
 406              		.loc 1 661 0 discriminator 3
 407 00da 8022     		movs	r2, #128
ARM GAS  C:\Users\Henrique\AppData\Local\Temp\ccvZC405.s 			page 20


 408 00dc FFF7FEFF 		bl	CYCONFIGCPYCODE
 409              	.LVL35:
 410              	.LBE5:
 655:Generated_Source\PSoC4/cyfitter_cfg.c **** 		{
 411              		.loc 1 655 0 discriminator 3
 412 00e0 0134     		adds	r4, r4, #1
 413              	.LVL36:
 414 00e2 E4B2     		uxtb	r4, r4
 415              	.LVL37:
 416              	.L22:
 655:Generated_Source\PSoC4/cyfitter_cfg.c **** 		{
 417              		.loc 1 655 0 is_stmt 0 discriminator 1
 418 00e4 002C     		cmp	r4, #0
 419 00e6 EBD0     		beq	.L23
 662:Generated_Source\PSoC4/cyfitter_cfg.c **** 		}
 663:Generated_Source\PSoC4/cyfitter_cfg.c **** 
 664:Generated_Source\PSoC4/cyfitter_cfg.c **** 		cfg_write_bytes32(cy_cfg_addr_table, cy_cfg_data_table);
 420              		.loc 1 664 0 is_stmt 1
 421 00e8 2849     		ldr	r1, .L24
 422 00ea 2031     		adds	r1, r1, #32
 423 00ec 2848     		ldr	r0, .L24+4
 424 00ee 3430     		adds	r0, r0, #52
 425 00f0 FFF7FEFF 		bl	cfg_write_bytes32
 426              	.LVL38:
 665:Generated_Source\PSoC4/cyfitter_cfg.c **** 
 666:Generated_Source\PSoC4/cyfitter_cfg.c **** 		/* Perform normal device configuration. Order is not critical for these items. */
 667:Generated_Source\PSoC4/cyfitter_cfg.c **** 		CY_SET_REG16((void *)(CYREG_UDB_BCTL0_DRV), 0x0100u);
 427              		.loc 1 667 0
 428 00f4 8022     		movs	r2, #128
 429 00f6 5200     		lsls	r2, r2, #1
 430 00f8 264B     		ldr	r3, .L24+8
 431 00fa 1A80     		strh	r2, [r3]
 668:Generated_Source\PSoC4/cyfitter_cfg.c **** 		CY_SET_REG8((void *)(CYREG_UDB_BCTL0_DRV + 0x2u), 0x01u);
 432              		.loc 1 668 0
 433 00fc FF3A     		subs	r2, r2, #255
 434 00fe 264B     		ldr	r3, .L24+12
 435 0100 1A70     		strb	r2, [r3]
 669:Generated_Source\PSoC4/cyfitter_cfg.c **** 
 670:Generated_Source\PSoC4/cyfitter_cfg.c **** 		/* HSIOM Starting address: CYDEV_HSIOM_BASE */
 671:Generated_Source\PSoC4/cyfitter_cfg.c **** 		CY_SET_REG32((void *)(CYDEV_HSIOM_BASE), 0x00030000u);
 436              		.loc 1 671 0
 437 0102 C022     		movs	r2, #192
 438 0104 9202     		lsls	r2, r2, #10
 439 0106 254B     		ldr	r3, .L24+16
 440 0108 1A60     		str	r2, [r3]
 672:Generated_Source\PSoC4/cyfitter_cfg.c **** 		CY_SET_REG32((void *)(CYREG_HSIOM_PORT_SEL3), 0x0000EE00u);
 441              		.loc 1 672 0
 442 010a EE22     		movs	r2, #238
 443 010c 1202     		lsls	r2, r2, #8
 444 010e 244B     		ldr	r3, .L24+20
 445 0110 1A60     		str	r2, [r3]
 673:Generated_Source\PSoC4/cyfitter_cfg.c **** 
 674:Generated_Source\PSoC4/cyfitter_cfg.c **** 		/* UDB_PA_0 Starting address: CYDEV_UDB_PA0_BASE */
 675:Generated_Source\PSoC4/cyfitter_cfg.c **** 		CY_SET_REG32((void *)(CYDEV_UDB_PA0_BASE), 0x00990000u);
 446              		.loc 1 675 0
 447 0112 9923     		movs	r3, #153
 448 0114 1B04     		lsls	r3, r3, #16
ARM GAS  C:\Users\Henrique\AppData\Local\Temp\ccvZC405.s 			page 21


 449 0116 234A     		ldr	r2, .L24+24
 450 0118 1360     		str	r3, [r2]
 676:Generated_Source\PSoC4/cyfitter_cfg.c **** 		CY_SET_REG32((void *)(CYREG_UDB_PA0_CFG8), 0x03000000u);
 451              		.loc 1 676 0
 452 011a C021     		movs	r1, #192
 453 011c 8904     		lsls	r1, r1, #18
 454 011e 224A     		ldr	r2, .L24+28
 455 0120 1160     		str	r1, [r2]
 677:Generated_Source\PSoC4/cyfitter_cfg.c **** 
 678:Generated_Source\PSoC4/cyfitter_cfg.c **** 		/* UDB_PA_1 Starting address: CYDEV_UDB_PA1_BASE */
 679:Generated_Source\PSoC4/cyfitter_cfg.c **** 		CY_SET_REG32((void *)(CYDEV_UDB_PA1_BASE), 0x00990004u);
 456              		.loc 1 679 0
 457 0122 2249     		ldr	r1, .L24+32
 458 0124 224A     		ldr	r2, .L24+36
 459 0126 1160     		str	r1, [r2]
 680:Generated_Source\PSoC4/cyfitter_cfg.c **** 		CY_SET_REG32((void *)(CYREG_UDB_PA1_CFG4), 0x08000000u);
 460              		.loc 1 680 0
 461 0128 8021     		movs	r1, #128
 462 012a 0905     		lsls	r1, r1, #20
 463 012c 214A     		ldr	r2, .L24+40
 464 012e 1160     		str	r1, [r2]
 681:Generated_Source\PSoC4/cyfitter_cfg.c **** 
 682:Generated_Source\PSoC4/cyfitter_cfg.c **** 		/* UDB_PA_2 Starting address: CYDEV_UDB_PA2_BASE */
 683:Generated_Source\PSoC4/cyfitter_cfg.c **** 		CY_SET_REG32((void *)(CYDEV_UDB_PA2_BASE), 0x00990000u);
 465              		.loc 1 683 0
 466 0130 214A     		ldr	r2, .L24+44
 467 0132 1360     		str	r3, [r2]
 684:Generated_Source\PSoC4/cyfitter_cfg.c **** 
 685:Generated_Source\PSoC4/cyfitter_cfg.c **** 		/* UDB_PA_3 Starting address: CYDEV_UDB_PA3_BASE */
 686:Generated_Source\PSoC4/cyfitter_cfg.c **** 		CY_SET_REG32((void *)(CYDEV_UDB_PA3_BASE), 0x00990000u);
 468              		.loc 1 686 0
 469 0134 214A     		ldr	r2, .L24+48
 470 0136 1360     		str	r3, [r2]
 687:Generated_Source\PSoC4/cyfitter_cfg.c **** 
 688:Generated_Source\PSoC4/cyfitter_cfg.c **** 		/* Enable UDB array and digital routing */
 689:Generated_Source\PSoC4/cyfitter_cfg.c **** 		CY_SET_XTND_REG8((void *)CYREG_UDB_UDBIF_WAIT_CFG, (uint8)((CY_GET_XTND_REG8((void *)CYREG_UDB_UD
 471              		.loc 1 689 0
 472 0138 2149     		ldr	r1, .L24+52
 473 013a 0B78     		ldrb	r3, [r1]
 474 013c 3C22     		movs	r2, #60
 475 013e 9343     		bics	r3, r2
 476 0140 1422     		movs	r2, #20
 477 0142 1343     		orrs	r3, r2
 478 0144 DBB2     		uxtb	r3, r3
 479 0146 0B70     		strb	r3, [r1]
 690:Generated_Source\PSoC4/cyfitter_cfg.c **** 		CY_SET_XTND_REG8((void *)CYREG_UDB_UDBIF_BANK_CTL, (uint8)(CY_GET_XTND_REG8((void *)CYREG_UDB_UDB
 480              		.loc 1 690 0
 481 0148 1E4A     		ldr	r2, .L24+56
 482 014a 1178     		ldrb	r1, [r2]
 483 014c 1623     		movs	r3, #22
 484 014e 0B43     		orrs	r3, r1
 485 0150 DBB2     		uxtb	r3, r3
 486 0152 1370     		strb	r3, [r2]
 487              	.LBE3:
 691:Generated_Source\PSoC4/cyfitter_cfg.c **** 	}
 692:Generated_Source\PSoC4/cyfitter_cfg.c **** 
 693:Generated_Source\PSoC4/cyfitter_cfg.c **** 	/* Perform second pass device configuration. These items must be configured in specific order afte
ARM GAS  C:\Users\Henrique\AppData\Local\Temp\ccvZC405.s 			page 22


 694:Generated_Source\PSoC4/cyfitter_cfg.c **** 	/* IOPINS0_0 Starting address: CYDEV_PRT0_BASE */
 695:Generated_Source\PSoC4/cyfitter_cfg.c **** 	CY_SET_REG32((void *)(CYDEV_PRT0_BASE), 0x00000010u);
 488              		.loc 1 695 0
 489 0154 1022     		movs	r2, #16
 490 0156 1C4B     		ldr	r3, .L24+60
 491 0158 1A60     		str	r2, [r3]
 696:Generated_Source\PSoC4/cyfitter_cfg.c **** 	CY_SET_REG32((void *)(CYREG_PRT0_PC), 0x00006000u);
 492              		.loc 1 696 0
 493 015a C022     		movs	r2, #192
 494 015c D201     		lsls	r2, r2, #7
 495 015e 1B4B     		ldr	r3, .L24+64
 496 0160 1A60     		str	r2, [r3]
 697:Generated_Source\PSoC4/cyfitter_cfg.c **** 
 698:Generated_Source\PSoC4/cyfitter_cfg.c **** 	/* IOPINS0_1 Starting address: CYDEV_PRT1_BASE */
 699:Generated_Source\PSoC4/cyfitter_cfg.c **** 	CY_SET_REG32((void *)(CYREG_PRT1_PC), 0x00008000u);
 497              		.loc 1 699 0
 498 0162 8022     		movs	r2, #128
 499 0164 1202     		lsls	r2, r2, #8
 500 0166 1A4B     		ldr	r3, .L24+68
 501 0168 1A60     		str	r2, [r3]
 700:Generated_Source\PSoC4/cyfitter_cfg.c **** 	CY_SET_REG32((void *)(CYREG_PRT1_PC2), 0x00000080u);
 502              		.loc 1 700 0
 503 016a 8022     		movs	r2, #128
 504 016c 194B     		ldr	r3, .L24+72
 505 016e 1A60     		str	r2, [r3]
 701:Generated_Source\PSoC4/cyfitter_cfg.c **** 
 702:Generated_Source\PSoC4/cyfitter_cfg.c **** 	/* IOPINS0_2 Starting address: CYDEV_PRT2_BASE */
 703:Generated_Source\PSoC4/cyfitter_cfg.c **** 	CY_SET_REG32((void *)(CYDEV_PRT2_BASE), 0x00000008u);
 506              		.loc 1 703 0
 507 0170 0823     		movs	r3, #8
 508 0172 194A     		ldr	r2, .L24+76
 509 0174 1360     		str	r3, [r2]
 704:Generated_Source\PSoC4/cyfitter_cfg.c **** 	CY_SET_REG32((void *)(CYREG_PRT2_PC2), 0x00000008u);
 510              		.loc 1 704 0
 511 0176 194A     		ldr	r2, .L24+80
 512 0178 1360     		str	r3, [r2]
 705:Generated_Source\PSoC4/cyfitter_cfg.c **** 
 706:Generated_Source\PSoC4/cyfitter_cfg.c **** 	/* IOPINS0_3 Starting address: CYDEV_PRT3_BASE */
 707:Generated_Source\PSoC4/cyfitter_cfg.c **** 	CY_SET_REG32((void *)(CYREG_PRT3_PC), 0x00000D80u);
 513              		.loc 1 707 0
 514 017a D822     		movs	r2, #216
 515 017c 1201     		lsls	r2, r2, #4
 516 017e 184B     		ldr	r3, .L24+84
 517 0180 1A60     		str	r2, [r3]
 708:Generated_Source\PSoC4/cyfitter_cfg.c **** 
 709:Generated_Source\PSoC4/cyfitter_cfg.c **** 
 710:Generated_Source\PSoC4/cyfitter_cfg.c **** 	/* Setup clocks based on selections from Clock DWR */
 711:Generated_Source\PSoC4/cyfitter_cfg.c **** 	ClockSetup();
 518              		.loc 1 711 0
 519 0182 FFF73DFF 		bl	ClockSetup
 520              	.LVL39:
 712:Generated_Source\PSoC4/cyfitter_cfg.c **** 
 713:Generated_Source\PSoC4/cyfitter_cfg.c **** 	/* Perform basic analog initialization to defaults */
 714:Generated_Source\PSoC4/cyfitter_cfg.c **** 	AnalogSetDefault();
 521              		.loc 1 714 0
 522 0186 FFF7FEFF 		bl	AnalogSetDefault
 523              	.LVL40:
ARM GAS  C:\Users\Henrique\AppData\Local\Temp\ccvZC405.s 			page 23


 715:Generated_Source\PSoC4/cyfitter_cfg.c **** 
 716:Generated_Source\PSoC4/cyfitter_cfg.c **** }
 524              		.loc 1 716 0
 525              		@ sp needed
 526              	.LVL41:
 527 018a 70BD     		pop	{r4, r5, r6, pc}
 528              	.L25:
 529              		.align	2
 530              	.L24:
 531 018c 00000000 		.word	.LANCHOR0
 532 0190 00020000 		.word	.LANCHOR1
 533 0194 00600F40 		.word	1074749440
 534 0198 02600F40 		.word	1074749442
 535 019c 00000140 		.word	1073807360
 536 01a0 0C000140 		.word	1073807372
 537 01a4 00500F40 		.word	1074745344
 538 01a8 08500F40 		.word	1074745352
 539 01ac 04009900 		.word	10027012
 540 01b0 10500F40 		.word	1074745360
 541 01b4 14500F40 		.word	1074745364
 542 01b8 20500F40 		.word	1074745376
 543 01bc 30500F40 		.word	1074745392
 544 01c0 01700F40 		.word	1074753537
 545 01c4 00700F40 		.word	1074753536
 546 01c8 00000440 		.word	1074003968
 547 01cc 08000440 		.word	1074003976
 548 01d0 08010440 		.word	1074004232
 549 01d4 18010440 		.word	1074004248
 550 01d8 00020440 		.word	1074004480
 551 01dc 18020440 		.word	1074004504
 552 01e0 08030440 		.word	1074004744
 553              		.cfi_endproc
 554              	.LFE7:
 555              		.size	cyfitter_cfg, .-cyfitter_cfg
 556              		.section	.rodata
 557              		.align	2
 558              		.set	.LANCHOR0,. + 0
 559              		.set	.LANCHOR1,. + 512
 560              		.type	cfg_memset_list.4881, %object
 561              		.size	cfg_memset_list.4881, 18
 562              	cfg_memset_list.4881:
 563 0000 00300F40 		.word	1074737152
 564 0004 8000     		.short	128
 565 0006 00310F40 		.4byte	1074737408
 566 000a 0003     		.short	768
 567 000c 00400F40 		.word	1074741248
 568 0010 0004     		.short	1024
 569 0012 0000     		.space	2
 570              		.type	cfg_memcpy_list.4883, %object
 571              		.size	cfg_memcpy_list.4883, 10
 572              	cfg_memcpy_list.4883:
 573 0014 80300F40 		.word	1074737280
 574 0018 54020000 		.word	BS_UDB_0_1_1_CONFIG_VAL.4882
 575 001c 8000     		.short	128
 576 001e 0000     		.space	2
 577              		.type	cy_cfg_data_table.4871, %object
 578              		.size	cy_cfg_data_table.4871, 530
ARM GAS  C:\Users\Henrique\AppData\Local\Temp\ccvZC405.s 			page 24


 579              	cy_cfg_data_table.4871:
 580 0020 80       		.byte	-128
 581 0021 38       		.byte	56
 582 0022 81       		.byte	-127
 583 0023 72       		.byte	114
 584 0024 82       		.byte	-126
 585 0025 0F       		.byte	15
 586 0026 02       		.byte	2
 587 0027 02       		.byte	2
 588 0028 04       		.byte	4
 589 0029 08       		.byte	8
 590 002a 12       		.byte	18
 591 002b 01       		.byte	1
 592 002c 1E       		.byte	30
 593 002d 04       		.byte	4
 594 002e 26       		.byte	38
 595 002f 01       		.byte	1
 596 0030 29       		.byte	41
 597 0031 01       		.byte	1
 598 0032 2E       		.byte	46
 599 0033 02       		.byte	2
 600 0034 30       		.byte	48
 601 0035 01       		.byte	1
 602 0036 32       		.byte	50
 603 0037 08       		.byte	8
 604 0038 33       		.byte	51
 605 0039 01       		.byte	1
 606 003a 34       		.byte	52
 607 003b 02       		.byte	2
 608 003c 36       		.byte	54
 609 003d 04       		.byte	4
 610 003e 3E       		.byte	62
 611 003f 15       		.byte	21
 612 0040 3F       		.byte	63
 613 0041 04       		.byte	4
 614 0042 54       		.byte	84
 615 0043 18       		.byte	24
 616 0044 58       		.byte	88
 617 0045 04       		.byte	4
 618 0046 59       		.byte	89
 619 0047 04       		.byte	4
 620 0048 5B       		.byte	91
 621 0049 04       		.byte	4
 622 004a 5F       		.byte	95
 623 004b 01       		.byte	1
 624 004c 00       		.byte	0
 625 004d 08       		.byte	8
 626 004e 02       		.byte	2
 627 004f 80       		.byte	-128
 628 0050 04       		.byte	4
 629 0051 98       		.byte	-104
 630 0052 05       		.byte	5
 631 0053 01       		.byte	1
 632 0054 09       		.byte	9
 633 0055 02       		.byte	2
 634 0056 0B       		.byte	11
 635 0057 01       		.byte	1
ARM GAS  C:\Users\Henrique\AppData\Local\Temp\ccvZC405.s 			page 25


 636 0058 0D       		.byte	13
 637 0059 28       		.byte	40
 638 005a 0E       		.byte	14
 639 005b 02       		.byte	2
 640 005c 0F       		.byte	15
 641 005d 40       		.byte	64
 642 005e 10       		.byte	16
 643 005f 22       		.byte	34
 644 0060 16       		.byte	22
 645 0061 14       		.byte	20
 646 0062 17       		.byte	23
 647 0063 02       		.byte	2
 648 0064 18       		.byte	24
 649 0065 04       		.byte	4
 650 0066 19       		.byte	25
 651 0067 88       		.byte	-120
 652 0068 1B       		.byte	27
 653 0069 01       		.byte	1
 654 006a 1D       		.byte	29
 655 006b 2A       		.byte	42
 656 006c 1E       		.byte	30
 657 006d 01       		.byte	1
 658 006e 1F       		.byte	31
 659 006f 28       		.byte	40
 660 0070 23       		.byte	35
 661 0071 10       		.byte	16
 662 0072 26       		.byte	38
 663 0073 A7       		.byte	-89
 664 0074 27       		.byte	39
 665 0075 08       		.byte	8
 666 0076 29       		.byte	41
 667 0077 20       		.byte	32
 668 0078 2D       		.byte	45
 669 0079 80       		.byte	-128
 670 007a 2F       		.byte	47
 671 007b 28       		.byte	40
 672 007c 36       		.byte	54
 673 007d 2A       		.byte	42
 674 007e 3E       		.byte	62
 675 007f AA       		.byte	-86
 676 0080 45       		.byte	69
 677 0081 22       		.byte	34
 678 0082 47       		.byte	71
 679 0083 48       		.byte	72
 680 0084 4C       		.byte	76
 681 0085 24       		.byte	36
 682 0086 4E       		.byte	78
 683 0087 08       		.byte	8
 684 0088 54       		.byte	84
 685 0089 02       		.byte	2
 686 008a 5A       		.byte	90
 687 008b 01       		.byte	1
 688 008c 5E       		.byte	94
 689 008d 08       		.byte	8
 690 008e 60       		.byte	96
 691 008f 04       		.byte	4
 692 0090 63       		.byte	99
ARM GAS  C:\Users\Henrique\AppData\Local\Temp\ccvZC405.s 			page 26


 693 0091 02       		.byte	2
 694 0092 6E       		.byte	110
 695 0093 14       		.byte	20
 696 0094 6F       		.byte	111
 697 0095 01       		.byte	1
 698 0096 76       		.byte	118
 699 0097 3E       		.byte	62
 700 0098 77       		.byte	119
 701 0099 02       		.byte	2
 702 009a 87       		.byte	-121
 703 009b 10       		.byte	16
 704 009c C0       		.byte	-64
 705 009d FC       		.byte	-4
 706 009e C2       		.byte	-62
 707 009f F9       		.byte	-7
 708 00a0 C4       		.byte	-60
 709 00a1 75       		.byte	117
 710 00a2 CA       		.byte	-54
 711 00a3 74       		.byte	116
 712 00a4 CC       		.byte	-52
 713 00a5 E0       		.byte	-32
 714 00a6 CE       		.byte	-50
 715 00a7 F0       		.byte	-16
 716 00a8 D0       		.byte	-48
 717 00a9 F0       		.byte	-16
 718 00aa D2       		.byte	-46
 719 00ab 20       		.byte	32
 720 00ac D6       		.byte	-42
 721 00ad 41       		.byte	65
 722 00ae D8       		.byte	-40
 723 00af 0C       		.byte	12
 724 00b0 00       		.byte	0
 725 00b1 13       		.byte	19
 726 00b2 01       		.byte	1
 727 00b3 01       		.byte	1
 728 00b4 02       		.byte	2
 729 00b5 04       		.byte	4
 730 00b6 03       		.byte	3
 731 00b7 0A       		.byte	10
 732 00b8 04       		.byte	4
 733 00b9 0A       		.byte	10
 734 00ba 05       		.byte	5
 735 00bb 13       		.byte	19
 736 00bc 06       		.byte	6
 737 00bd 14       		.byte	20
 738 00be 08       		.byte	8
 739 00bf 13       		.byte	19
 740 00c0 09       		.byte	9
 741 00c1 13       		.byte	19
 742 00c2 0A       		.byte	10
 743 00c3 0C       		.byte	12
 744 00c4 0C       		.byte	12
 745 00c5 40       		.byte	64
 746 00c6 0E       		.byte	14
 747 00c7 20       		.byte	32
 748 00c8 11       		.byte	17
 749 00c9 10       		.byte	16
ARM GAS  C:\Users\Henrique\AppData\Local\Temp\ccvZC405.s 			page 27


 750 00ca 12       		.byte	18
 751 00cb 08       		.byte	8
 752 00cc 14       		.byte	20
 753 00cd 20       		.byte	32
 754 00ce 16       		.byte	22
 755 00cf C0       		.byte	-64
 756 00d0 18       		.byte	24
 757 00d1 E0       		.byte	-32
 758 00d2 19       		.byte	25
 759 00d3 02       		.byte	2
 760 00d4 1B       		.byte	27
 761 00d5 09       		.byte	9
 762 00d6 1C       		.byte	28
 763 00d7 03       		.byte	3
 764 00d8 1E       		.byte	30
 765 00d9 14       		.byte	20
 766 00da 26       		.byte	38
 767 00db 15       		.byte	21
 768 00dc 28       		.byte	40
 769 00dd 80       		.byte	-128
 770 00de 2A       		.byte	42
 771 00df 20       		.byte	32
 772 00e0 2B       		.byte	43
 773 00e1 04       		.byte	4
 774 00e2 2C       		.byte	44
 775 00e3 E0       		.byte	-32
 776 00e4 30       		.byte	48
 777 00e5 10       		.byte	16
 778 00e6 31       		.byte	49
 779 00e7 0C       		.byte	12
 780 00e8 32       		.byte	50
 781 00e9 E0       		.byte	-32
 782 00ea 33       		.byte	51
 783 00eb 03       		.byte	3
 784 00ec 34       		.byte	52
 785 00ed 0F       		.byte	15
 786 00ee 35       		.byte	53
 787 00ef 10       		.byte	16
 788 00f0 3A       		.byte	58
 789 00f1 20       		.byte	32
 790 00f2 3E       		.byte	62
 791 00f3 01       		.byte	1
 792 00f4 3F       		.byte	63
 793 00f5 01       		.byte	1
 794 00f6 40       		.byte	64
 795 00f7 36       		.byte	54
 796 00f8 41       		.byte	65
 797 00f9 01       		.byte	1
 798 00fa 46       		.byte	70
 799 00fb B0       		.byte	-80
 800 00fc 47       		.byte	71
 801 00fd CE       		.byte	-50
 802 00fe 48       		.byte	72
 803 00ff 38       		.byte	56
 804 0100 49       		.byte	73
 805 0101 FF       		.byte	-1
 806 0102 4A       		.byte	74
ARM GAS  C:\Users\Henrique\AppData\Local\Temp\ccvZC405.s 			page 28


 807 0103 FF       		.byte	-1
 808 0104 4B       		.byte	75
 809 0105 FF       		.byte	-1
 810 0106 4E       		.byte	78
 811 0107 F0       		.byte	-16
 812 0108 4F       		.byte	79
 813 0109 44       		.byte	68
 814 010a 50       		.byte	80
 815 010b 0C       		.byte	12
 816 010c 54       		.byte	84
 817 010d 01       		.byte	1
 818 010e 58       		.byte	88
 819 010f 04       		.byte	4
 820 0110 59       		.byte	89
 821 0111 04       		.byte	4
 822 0112 5A       		.byte	90
 823 0113 04       		.byte	4
 824 0114 5B       		.byte	91
 825 0115 04       		.byte	4
 826 0116 5F       		.byte	95
 827 0117 01       		.byte	1
 828 0118 66       		.byte	102
 829 0119 C0       		.byte	-64
 830 011a 6A       		.byte	106
 831 011b 40       		.byte	64
 832 011c 6B       		.byte	107
 833 011d 02       		.byte	2
 834 011e 84       		.byte	-124
 835 011f 14       		.byte	20
 836 0120 85       		.byte	-123
 837 0121 80       		.byte	-128
 838 0122 87       		.byte	-121
 839 0123 13       		.byte	19
 840 0124 8A       		.byte	-118
 841 0125 03       		.byte	3
 842 0126 8C       		.byte	-116
 843 0127 0C       		.byte	12
 844 0128 8E       		.byte	-114
 845 0129 71       		.byte	113
 846 012a 8F       		.byte	-113
 847 012b 0C       		.byte	12
 848 012c 90       		.byte	-112
 849 012d 09       		.byte	9
 850 012e 92       		.byte	-110
 851 012f D0       		.byte	-48
 852 0130 94       		.byte	-108
 853 0131 DC       		.byte	-36
 854 0132 95       		.byte	-107
 855 0133 2C       		.byte	44
 856 0134 96       		.byte	-106
 857 0135 22       		.byte	34
 858 0136 97       		.byte	-105
 859 0137 43       		.byte	67
 860 0138 99       		.byte	-103
 861 0139 71       		.byte	113
 862 013a 9B       		.byte	-101
 863 013b 06       		.byte	6
ARM GAS  C:\Users\Henrique\AppData\Local\Temp\ccvZC405.s 			page 29


 864 013c 9F       		.byte	-97
 865 013d 08       		.byte	8
 866 013e A0       		.byte	-96
 867 013f 10       		.byte	16
 868 0140 A1       		.byte	-95
 869 0141 71       		.byte	113
 870 0142 A2       		.byte	-94
 871 0143 40       		.byte	64
 872 0144 A3       		.byte	-93
 873 0145 0E       		.byte	14
 874 0146 A4       		.byte	-92
 875 0147 10       		.byte	16
 876 0148 A6       		.byte	-90
 877 0149 AC       		.byte	-84
 878 014a AA       		.byte	-86
 879 014b 20       		.byte	32
 880 014c B0       		.byte	-80
 881 014d E0       		.byte	-32
 882 014e B1       		.byte	-79
 883 014f C0       		.byte	-64
 884 0150 B3       		.byte	-77
 885 0151 0F       		.byte	15
 886 0152 B4       		.byte	-76
 887 0153 1F       		.byte	31
 888 0154 B5       		.byte	-75
 889 0155 30       		.byte	48
 890 0156 B9       		.byte	-71
 891 0157 22       		.byte	34
 892 0158 BA       		.byte	-70
 893 0159 02       		.byte	2
 894 015a BB       		.byte	-69
 895 015b 08       		.byte	8
 896 015c BF       		.byte	-65
 897 015d 10       		.byte	16
 898 015e C0       		.byte	-64
 899 015f 02       		.byte	2
 900 0160 C6       		.byte	-58
 901 0161 04       		.byte	4
 902 0162 C9       		.byte	-55
 903 0163 FF       		.byte	-1
 904 0164 CA       		.byte	-54
 905 0165 07       		.byte	7
 906 0166 CB       		.byte	-53
 907 0167 FF       		.byte	-1
 908 0168 CC       		.byte	-52
 909 0169 40       		.byte	64
 910 016a CD       		.byte	-51
 911 016b 20       		.byte	32
 912 016c CE       		.byte	-50
 913 016d F0       		.byte	-16
 914 016e CF       		.byte	-49
 915 016f 05       		.byte	5
 916 0170 D0       		.byte	-48
 917 0171 08       		.byte	8
 918 0172 D8       		.byte	-40
 919 0173 04       		.byte	4
 920 0174 D9       		.byte	-39
ARM GAS  C:\Users\Henrique\AppData\Local\Temp\ccvZC405.s 			page 30


 921 0175 04       		.byte	4
 922 0176 DA       		.byte	-38
 923 0177 04       		.byte	4
 924 0178 DF       		.byte	-33
 925 0179 01       		.byte	1
 926 017a E0       		.byte	-32
 927 017b 40       		.byte	64
 928 017c E1       		.byte	-31
 929 017d A8       		.byte	-88
 930 017e E2       		.byte	-30
 931 017f 40       		.byte	64
 932 0180 E3       		.byte	-29
 933 0181 20       		.byte	32
 934 0182 00       		.byte	0
 935 0183 40       		.byte	64
 936 0184 01       		.byte	1
 937 0185 20       		.byte	32
 938 0186 02       		.byte	2
 939 0187 10       		.byte	16
 940 0188 04       		.byte	4
 941 0189 80       		.byte	-128
 942 018a 05       		.byte	5
 943 018b 15       		.byte	21
 944 018c 09       		.byte	9
 945 018d 08       		.byte	8
 946 018e 0B       		.byte	11
 947 018f 40       		.byte	64
 948 0190 0E       		.byte	14
 949 0191 24       		.byte	36
 950 0192 0F       		.byte	15
 951 0193 42       		.byte	66
 952 0194 10       		.byte	16
 953 0195 90       		.byte	-112
 954 0196 12       		.byte	18
 955 0197 08       		.byte	8
 956 0198 15       		.byte	21
 957 0199 88       		.byte	-120
 958 019a 17       		.byte	23
 959 019b 10       		.byte	16
 960 019c 18       		.byte	24
 961 019d 40       		.byte	64
 962 019e 19       		.byte	25
 963 019f 21       		.byte	33
 964 01a0 1C       		.byte	28
 965 01a1 10       		.byte	16
 966 01a2 1D       		.byte	29
 967 01a3 10       		.byte	16
 968 01a4 1E       		.byte	30
 969 01a5 60       		.byte	96
 970 01a6 1F       		.byte	31
 971 01a7 04       		.byte	4
 972 01a8 20       		.byte	32
 973 01a9 04       		.byte	4
 974 01aa 21       		.byte	33
 975 01ab 08       		.byte	8
 976 01ac 23       		.byte	35
 977 01ad 40       		.byte	64
ARM GAS  C:\Users\Henrique\AppData\Local\Temp\ccvZC405.s 			page 31


 978 01ae 24       		.byte	36
 979 01af 08       		.byte	8
 980 01b0 27       		.byte	39
 981 01b1 50       		.byte	80
 982 01b2 29       		.byte	41
 983 01b3 01       		.byte	1
 984 01b4 2A       		.byte	42
 985 01b5 02       		.byte	2
 986 01b6 2F       		.byte	47
 987 01b7 04       		.byte	4
 988 01b8 30       		.byte	48
 989 01b9 90       		.byte	-112
 990 01ba 31       		.byte	49
 991 01bb 1C       		.byte	28
 992 01bc 37       		.byte	55
 993 01bd 11       		.byte	17
 994 01be 39       		.byte	57
 995 01bf 08       		.byte	8
 996 01c0 3B       		.byte	59
 997 01c1 40       		.byte	64
 998 01c2 3E       		.byte	62
 999 01c3 14       		.byte	20
 1000 01c4 3F       		.byte	63
 1001 01c5 01       		.byte	1
 1002 01c6 40       		.byte	64
 1003 01c7 04       		.byte	4
 1004 01c8 44       		.byte	68
 1005 01c9 10       		.byte	16
 1006 01ca 46       		.byte	70
 1007 01cb 02       		.byte	2
 1008 01cc 4E       		.byte	78
 1009 01cd 08       		.byte	8
 1010 01ce 50       		.byte	80
 1011 01cf 80       		.byte	-128
 1012 01d0 51       		.byte	81
 1013 01d1 04       		.byte	4
 1014 01d2 52       		.byte	82
 1015 01d3 08       		.byte	8
 1016 01d4 54       		.byte	84
 1017 01d5 04       		.byte	4
 1018 01d6 56       		.byte	86
 1019 01d7 10       		.byte	16
 1020 01d8 57       		.byte	87
 1021 01d9 01       		.byte	1
 1022 01da 5D       		.byte	93
 1023 01db 18       		.byte	24
 1024 01dc 5E       		.byte	94
 1025 01dd 40       		.byte	64
 1026 01de 5F       		.byte	95
 1027 01df 02       		.byte	2
 1028 01e0 80       		.byte	-128
 1029 01e1 40       		.byte	64
 1030 01e2 82       		.byte	-126
 1031 01e3 80       		.byte	-128
 1032 01e4 83       		.byte	-125
 1033 01e5 01       		.byte	1
 1034 01e6 84       		.byte	-124
ARM GAS  C:\Users\Henrique\AppData\Local\Temp\ccvZC405.s 			page 32


 1035 01e7 04       		.byte	4
 1036 01e8 87       		.byte	-121
 1037 01e9 02       		.byte	2
 1038 01ea 89       		.byte	-119
 1039 01eb 10       		.byte	16
 1040 01ec 8B       		.byte	-117
 1041 01ed 01       		.byte	1
 1042 01ee 91       		.byte	-111
 1043 01ef 80       		.byte	-128
 1044 01f0 92       		.byte	-110
 1045 01f1 14       		.byte	20
 1046 01f2 94       		.byte	-108
 1047 01f3 98       		.byte	-104
 1048 01f4 97       		.byte	-105
 1049 01f5 01       		.byte	1
 1050 01f6 99       		.byte	-103
 1051 01f7 08       		.byte	8
 1052 01f8 9B       		.byte	-101
 1053 01f9 01       		.byte	1
 1054 01fa 9D       		.byte	-99
 1055 01fb 20       		.byte	32
 1056 01fc 9E       		.byte	-98
 1057 01fd 80       		.byte	-128
 1058 01fe 9F       		.byte	-97
 1059 01ff 50       		.byte	80
 1060 0200 A4       		.byte	-92
 1061 0201 04       		.byte	4
 1062 0202 B2       		.byte	-78
 1063 0203 20       		.byte	32
 1064 0204 B3       		.byte	-77
 1065 0205 40       		.byte	64
 1066 0206 B5       		.byte	-75
 1067 0207 41       		.byte	65
 1068 0208 B6       		.byte	-74
 1069 0209 10       		.byte	16
 1070 020a B7       		.byte	-73
 1071 020b 10       		.byte	16
 1072 020c C0       		.byte	-64
 1073 020d F7       		.byte	-9
 1074 020e C2       		.byte	-62
 1075 020f FC       		.byte	-4
 1076 0210 C4       		.byte	-60
 1077 0211 EE       		.byte	-18
 1078 0212 CA       		.byte	-54
 1079 0213 21       		.byte	33
 1080 0214 CC       		.byte	-52
 1081 0215 AE       		.byte	-82
 1082 0216 CE       		.byte	-50
 1083 0217 EA       		.byte	-22
 1084 0218 D0       		.byte	-48
 1085 0219 54       		.byte	84
 1086 021a D2       		.byte	-46
 1087 021b 20       		.byte	32
 1088 021c D6       		.byte	-42
 1089 021d F0       		.byte	-16
 1090 021e 67       		.byte	103
 1091 021f 80       		.byte	-128
ARM GAS  C:\Users\Henrique\AppData\Local\Temp\ccvZC405.s 			page 33


 1092 0220 87       		.byte	-121
 1093 0221 40       		.byte	64
 1094 0222 D8       		.byte	-40
 1095 0223 80       		.byte	-128
 1096 0224 E2       		.byte	-30
 1097 0225 10       		.byte	16
 1098 0226 0E       		.byte	14
 1099 0227 10       		.byte	16
 1100 0228 82       		.byte	-126
 1101 0229 10       		.byte	16
 1102 022a C2       		.byte	-62
 1103 022b 20       		.byte	32
 1104 022c E0       		.byte	-32
 1105 022d 80       		.byte	-128
 1106 022e 10       		.byte	16
 1107 022f 01       		.byte	1
 1108 0230 11       		.byte	17
 1109 0231 01       		.byte	1
 1110 0232 0000     		.space	2
 1111              		.type	cy_cfg_addr_table.4870, %object
 1112              		.size	cy_cfg_addr_table.4870, 32
 1113              	cy_cfg_addr_table.4870:
 1114 0234 03000F40 		.word	1074724867
 1115 0238 13300F40 		.word	1074737171
 1116 023c 32310F40 		.word	1074737458
 1117 0240 69320F40 		.word	1074737769
 1118 0244 4E330F40 		.word	1074737998
 1119 0248 04400F40 		.word	1074741252
 1120 024c 04410F40 		.word	1074741508
 1121 0250 02600F40 		.word	1074749442
 1122              		.type	BS_UDB_0_1_1_CONFIG_VAL.4882, %object
 1123              		.size	BS_UDB_0_1_1_CONFIG_VAL.4882, 128
 1124              	BS_UDB_0_1_1_CONFIG_VAL.4882:
 1125 0254 82       		.byte	-126
 1126 0255 10       		.byte	16
 1127 0256 00       		.byte	0
 1128 0257 00       		.byte	0
 1129 0258 00       		.byte	0
 1130 0259 08       		.byte	8
 1131 025a F3       		.byte	-13
 1132 025b 00       		.byte	0
 1133 025c C3       		.byte	-61
 1134 025d 18       		.byte	24
 1135 025e 00       		.byte	0
 1136 025f 00       		.byte	0
 1137 0260 41       		.byte	65
 1138 0261 04       		.byte	4
 1139 0262 00       		.byte	0
 1140 0263 00       		.byte	0
 1141 0264 FF       		.byte	-1
 1142 0265 3C       		.byte	60
 1143 0266 00       		.byte	0
 1144 0267 42       		.byte	66
 1145 0268 0F       		.byte	15
 1146 0269 00       		.byte	0
 1147 026a F0       		.byte	-16
 1148 026b 03       		.byte	3
ARM GAS  C:\Users\Henrique\AppData\Local\Temp\ccvZC405.s 			page 34


 1149 026c F3       		.byte	-13
 1150 026d 7F       		.byte	127
 1151 026e 0C       		.byte	12
 1152 026f 00       		.byte	0
 1153 0270 1C       		.byte	28
 1154 0271 00       		.byte	0
 1155 0272 E3       		.byte	-29
 1156 0273 00       		.byte	0
 1157 0274 08       		.byte	8
 1158 0275 00       		.byte	0
 1159 0276 00       		.byte	0
 1160 0277 00       		.byte	0
 1161 0278 0C       		.byte	12
 1162 0279 67       		.byte	103
 1163 027a 00       		.byte	0
 1164 027b 18       		.byte	24
 1165 027c 04       		.byte	4
 1166 027d 3C       		.byte	60
 1167 027e 00       		.byte	0
 1168 027f 41       		.byte	65
 1169 0280 00       		.byte	0
 1170 0281 00       		.byte	0
 1171 0282 00       		.byte	0
 1172 0283 04       		.byte	4
 1173 0284 1C       		.byte	28
 1174 0285 1F       		.byte	31
 1175 0286 2C       		.byte	44
 1176 0287 20       		.byte	32
 1177 0288 0F       		.byte	15
 1178 0289 00       		.byte	0
 1179 028a C0       		.byte	-64
 1180 028b 40       		.byte	64
 1181 028c 00       		.byte	0
 1182 028d 80       		.byte	-128
 1183 028e 28       		.byte	40
 1184 028f 22       		.byte	34
 1185 0290 00       		.byte	0
 1186 0291 00       		.byte	0
 1187 0292 00       		.byte	0
 1188 0293 04       		.byte	4
 1189 0294 26       		.byte	38
 1190 0295 03       		.byte	3
 1191 0296 04       		.byte	4
 1192 0297 00       		.byte	0
 1193 0298 01       		.byte	1
 1194 0299 0C       		.byte	12
 1195 029a 00       		.byte	0
 1196 029b E0       		.byte	-32
 1197 029c 21       		.byte	33
 1198 029d FF       		.byte	-1
 1199 029e FF       		.byte	-1
 1200 029f FF       		.byte	-1
 1201 02a0 62       		.byte	98
 1202 02a1 A0       		.byte	-96
 1203 02a2 F0       		.byte	-16
 1204 02a3 41       		.byte	65
 1205 02a4 0C       		.byte	12
ARM GAS  C:\Users\Henrique\AppData\Local\Temp\ccvZC405.s 			page 35


 1206 02a5 00       		.byte	0
 1207 02a6 00       		.byte	0
 1208 02a7 00       		.byte	0
 1209 02a8 00       		.byte	0
 1210 02a9 00       		.byte	0
 1211 02aa 02       		.byte	2
 1212 02ab 12       		.byte	18
 1213 02ac 04       		.byte	4
 1214 02ad 04       		.byte	4
 1215 02ae 04       		.byte	4
 1216 02af 04       		.byte	4
 1217 02b0 00       		.byte	0
 1218 02b1 00       		.byte	0
 1219 02b2 00       		.byte	0
 1220 02b3 01       		.byte	1
 1221 02b4 00       		.byte	0
 1222 02b5 00       		.byte	0
 1223 02b6 00       		.byte	0
 1224 02b7 00       		.byte	0
 1225 02b8 00       		.byte	0
 1226 02b9 00       		.byte	0
 1227 02ba 40       		.byte	64
 1228 02bb 02       		.byte	2
 1229 02bc 00       		.byte	0
 1230 02bd 10       		.byte	16
 1231 02be 30       		.byte	48
 1232 02bf 10       		.byte	16
 1233 02c0 00       		.byte	0
 1234 02c1 10       		.byte	16
 1235 02c2 10       		.byte	16
 1236 02c3 12       		.byte	18
 1237 02c4 00       		.byte	0
 1238 02c5 00       		.byte	0
 1239 02c6 00       		.byte	0
 1240 02c7 00       		.byte	0
 1241 02c8 00       		.byte	0
 1242 02c9 00       		.byte	0
 1243 02ca 00       		.byte	0
 1244 02cb 00       		.byte	0
 1245 02cc 00       		.byte	0
 1246 02cd 00       		.byte	0
 1247 02ce 00       		.byte	0
 1248 02cf 00       		.byte	0
 1249 02d0 00       		.byte	0
 1250 02d1 00       		.byte	0
 1251 02d2 00       		.byte	0
 1252 02d3 00       		.byte	0
 1253              		.text
 1254              	.Letext0:
 1255              		.file 2 "c:\\program files (x86)\\cypress\\psoc creator\\4.4\\psoc creator\\import\\gnu\\arm\\5.4.
 1256              		.file 3 "Generated_Source\\PSoC4\\cytypes.h"
 1257              		.file 4 "Generated_Source\\PSoC4\\CyLib.h"