ARM GAS  C:\Users\Henrique\AppData\Local\Temp\cc0twXqK.s 			page 1


   1              		.syntax unified
   2              		.cpu cortex-m0
   3              		.fpu softvfp
   4              		.eabi_attribute 20, 1
   5              		.eabi_attribute 21, 1
   6              		.eabi_attribute 23, 3
   7              		.eabi_attribute 24, 1
   8              		.eabi_attribute 25, 1
   9              		.eabi_attribute 26, 1
  10              		.eabi_attribute 30, 1
  11              		.eabi_attribute 34, 0
  12              		.eabi_attribute 18, 4
  13              		.thumb
  14              		.syntax unified
  15              		.file	"main.c"
  16              		.text
  17              	.Ltext0:
  18              		.cfi_sections	.debug_frame
  19              		.section	.text.go_to_state20,"ax",%progbits
  20              		.align	2
  21              		.global	go_to_state20
  22              		.code	16
  23              		.thumb_func
  24              		.type	go_to_state20, %function
  25              	go_to_state20:
  26              	.LFB32:
  27              		.file 1 "main.c"
   1:main.c        **** /* ========================================
   2:main.c        ****  *
   3:main.c        ****  * Copyright YOUR COMPANY, THE YEAR
   4:main.c        ****  * All Rights Reserved
   5:main.c        ****  * UNPUBLISHED, LICENSED SOFTWARE.
   6:main.c        ****  *
   7:main.c        ****  * CONFIDENTIAL AND PROPRIETARY INFORMATION
   8:main.c        ****  * WHICH IS THE PROPERTY OF your company.
   9:main.c        ****  *
  10:main.c        ****  * ========================================
  11:main.c        **** */
  12:main.c        **** #include "project.h"
  13:main.c        **** enum estados {ESTADO_20 = 1, ESTADO_40,ESTADO_60,ESTADO_70,ESTADO_80,ESTADO_100};
  14:main.c        **** enum estados led_state;
  15:main.c        **** 
  16:main.c        ****    void go_to_state20(){
  28              		.loc 1 16 0
  29              		.cfi_startproc
  30              		@ args = 0, pretend = 0, frame = 0
  31              		@ frame_needed = 0, uses_anonymous_args = 0
  32 0000 10B5     		push	{r4, lr}
  33              		.cfi_def_cfa_offset 8
  34              		.cfi_offset 4, -8
  35              		.cfi_offset 14, -4
  17:main.c        ****         if (BT_Read() == 0){
  36              		.loc 1 17 0
  37 0002 FFF7FEFF 		bl	BT_Read
  38              	.LVL0:
  39 0006 0028     		cmp	r0, #0
  40 0008 05D1     		bne	.L1
ARM GAS  C:\Users\Henrique\AppData\Local\Temp\cc0twXqK.s 			page 2


  18:main.c        ****             led_state = ESTADO_20;
  41              		.loc 1 18 0
  42 000a 0122     		movs	r2, #1
  43 000c 024B     		ldr	r3, .L3
  44 000e 1A70     		strb	r2, [r3]
  19:main.c        ****             PWM_1_WriteCompare (200);
  45              		.loc 1 19 0
  46 0010 C830     		adds	r0, r0, #200
  47 0012 FFF7FEFF 		bl	PWM_1_WriteCompare
  48              	.LVL1:
  49              	.L1:
  20:main.c        **** 
  21:main.c        ****         }
  22:main.c        **** }
  50              		.loc 1 22 0
  51              		@ sp needed
  52 0016 10BD     		pop	{r4, pc}
  53              	.L4:
  54              		.align	2
  55              	.L3:
  56 0018 00000000 		.word	led_state
  57              		.cfi_endproc
  58              	.LFE32:
  59              		.size	go_to_state20, .-go_to_state20
  60              		.section	.text.go_to_state40,"ax",%progbits
  61              		.align	2
  62              		.global	go_to_state40
  63              		.code	16
  64              		.thumb_func
  65              		.type	go_to_state40, %function
  66              	go_to_state40:
  67              	.LFB33:
  23:main.c        ****    void go_to_state40(){
  68              		.loc 1 23 0
  69              		.cfi_startproc
  70              		@ args = 0, pretend = 0, frame = 0
  71              		@ frame_needed = 0, uses_anonymous_args = 0
  72 0000 10B5     		push	{r4, lr}
  73              		.cfi_def_cfa_offset 8
  74              		.cfi_offset 4, -8
  75              		.cfi_offset 14, -4
  24:main.c        ****         if (BT_Read() == 0){
  76              		.loc 1 24 0
  77 0002 FFF7FEFF 		bl	BT_Read
  78              	.LVL2:
  79 0006 0028     		cmp	r0, #0
  80 0008 06D1     		bne	.L5
  25:main.c        ****             led_state = ESTADO_40;
  81              		.loc 1 25 0
  82 000a 0222     		movs	r2, #2
  83 000c 034B     		ldr	r3, .L7
  84 000e 1A70     		strb	r2, [r3]
  26:main.c        ****             PWM_1_WriteCompare (400);
  85              		.loc 1 26 0
  86 0010 9130     		adds	r0, r0, #145
  87 0012 FF30     		adds	r0, r0, #255
  88 0014 FFF7FEFF 		bl	PWM_1_WriteCompare
ARM GAS  C:\Users\Henrique\AppData\Local\Temp\cc0twXqK.s 			page 3


  89              	.LVL3:
  90              	.L5:
  27:main.c        **** 
  28:main.c        ****         }
  29:main.c        **** }
  91              		.loc 1 29 0
  92              		@ sp needed
  93 0018 10BD     		pop	{r4, pc}
  94              	.L8:
  95 001a C046     		.align	2
  96              	.L7:
  97 001c 00000000 		.word	led_state
  98              		.cfi_endproc
  99              	.LFE33:
 100              		.size	go_to_state40, .-go_to_state40
 101              		.section	.text.go_to_state60,"ax",%progbits
 102              		.align	2
 103              		.global	go_to_state60
 104              		.code	16
 105              		.thumb_func
 106              		.type	go_to_state60, %function
 107              	go_to_state60:
 108              	.LFB34:
  30:main.c        ****    void go_to_state60(){
 109              		.loc 1 30 0
 110              		.cfi_startproc
 111              		@ args = 0, pretend = 0, frame = 0
 112              		@ frame_needed = 0, uses_anonymous_args = 0
 113 0000 10B5     		push	{r4, lr}
 114              		.cfi_def_cfa_offset 8
 115              		.cfi_offset 4, -8
 116              		.cfi_offset 14, -4
  31:main.c        ****         if (BT_Read() == 0){
 117              		.loc 1 31 0
 118 0002 FFF7FEFF 		bl	BT_Read
 119              	.LVL4:
 120 0006 0028     		cmp	r0, #0
 121 0008 06D1     		bne	.L9
  32:main.c        ****             led_state = ESTADO_60;
 122              		.loc 1 32 0
 123 000a 0322     		movs	r2, #3
 124 000c 034B     		ldr	r3, .L11
 125 000e 1A70     		strb	r2, [r3]
  33:main.c        ****             PWM_1_WriteCompare (600);
 126              		.loc 1 33 0
 127 0010 9620     		movs	r0, #150
 128 0012 8000     		lsls	r0, r0, #2
 129 0014 FFF7FEFF 		bl	PWM_1_WriteCompare
 130              	.LVL5:
 131              	.L9:
  34:main.c        **** 
  35:main.c        ****         }
  36:main.c        **** }
 132              		.loc 1 36 0
 133              		@ sp needed
 134 0018 10BD     		pop	{r4, pc}
 135              	.L12:
ARM GAS  C:\Users\Henrique\AppData\Local\Temp\cc0twXqK.s 			page 4


 136 001a C046     		.align	2
 137              	.L11:
 138 001c 00000000 		.word	led_state
 139              		.cfi_endproc
 140              	.LFE34:
 141              		.size	go_to_state60, .-go_to_state60
 142              		.section	.text.go_to_state70,"ax",%progbits
 143              		.align	2
 144              		.global	go_to_state70
 145              		.code	16
 146              		.thumb_func
 147              		.type	go_to_state70, %function
 148              	go_to_state70:
 149              	.LFB35:
  37:main.c        ****    void go_to_state70(){
 150              		.loc 1 37 0
 151              		.cfi_startproc
 152              		@ args = 0, pretend = 0, frame = 0
 153              		@ frame_needed = 0, uses_anonymous_args = 0
 154 0000 10B5     		push	{r4, lr}
 155              		.cfi_def_cfa_offset 8
 156              		.cfi_offset 4, -8
 157              		.cfi_offset 14, -4
  38:main.c        ****         if (BT_Read() == 0){
 158              		.loc 1 38 0
 159 0002 FFF7FEFF 		bl	BT_Read
 160              	.LVL6:
 161 0006 0028     		cmp	r0, #0
 162 0008 06D1     		bne	.L13
  39:main.c        ****             led_state = ESTADO_70;
 163              		.loc 1 39 0
 164 000a 0422     		movs	r2, #4
 165 000c 034B     		ldr	r3, .L15
 166 000e 1A70     		strb	r2, [r3]
  40:main.c        ****             PWM_1_WriteCompare (700);
 167              		.loc 1 40 0
 168 0010 AF20     		movs	r0, #175
 169 0012 8000     		lsls	r0, r0, #2
 170 0014 FFF7FEFF 		bl	PWM_1_WriteCompare
 171              	.LVL7:
 172              	.L13:
  41:main.c        **** 
  42:main.c        ****         }
  43:main.c        **** }
 173              		.loc 1 43 0
 174              		@ sp needed
 175 0018 10BD     		pop	{r4, pc}
 176              	.L16:
 177 001a C046     		.align	2
 178              	.L15:
 179 001c 00000000 		.word	led_state
 180              		.cfi_endproc
 181              	.LFE35:
 182              		.size	go_to_state70, .-go_to_state70
 183              		.section	.text.go_to_state80,"ax",%progbits
 184              		.align	2
 185              		.global	go_to_state80
ARM GAS  C:\Users\Henrique\AppData\Local\Temp\cc0twXqK.s 			page 5


 186              		.code	16
 187              		.thumb_func
 188              		.type	go_to_state80, %function
 189              	go_to_state80:
 190              	.LFB36:
  44:main.c        ****    void go_to_state80(){
 191              		.loc 1 44 0
 192              		.cfi_startproc
 193              		@ args = 0, pretend = 0, frame = 0
 194              		@ frame_needed = 0, uses_anonymous_args = 0
 195 0000 10B5     		push	{r4, lr}
 196              		.cfi_def_cfa_offset 8
 197              		.cfi_offset 4, -8
 198              		.cfi_offset 14, -4
  45:main.c        ****         if (BT_Read() == 0){
 199              		.loc 1 45 0
 200 0002 FFF7FEFF 		bl	BT_Read
 201              	.LVL8:
 202 0006 0028     		cmp	r0, #0
 203 0008 06D1     		bne	.L17
  46:main.c        ****             led_state = ESTADO_80;
 204              		.loc 1 46 0
 205 000a 0522     		movs	r2, #5
 206 000c 034B     		ldr	r3, .L19
 207 000e 1A70     		strb	r2, [r3]
  47:main.c        ****             PWM_1_WriteCompare (800);
 208              		.loc 1 47 0
 209 0010 C820     		movs	r0, #200
 210 0012 8000     		lsls	r0, r0, #2
 211 0014 FFF7FEFF 		bl	PWM_1_WriteCompare
 212              	.LVL9:
 213              	.L17:
  48:main.c        **** 
  49:main.c        ****         }
  50:main.c        **** }   void go_to_state100(){
 214              		.loc 1 50 0
 215              		@ sp needed
 216 0018 10BD     		pop	{r4, pc}
 217              	.L20:
 218 001a C046     		.align	2
 219              	.L19:
 220 001c 00000000 		.word	led_state
 221              		.cfi_endproc
 222              	.LFE36:
 223              		.size	go_to_state80, .-go_to_state80
 224              		.section	.text.go_to_state100,"ax",%progbits
 225              		.align	2
 226              		.global	go_to_state100
 227              		.code	16
 228              		.thumb_func
 229              		.type	go_to_state100, %function
 230              	go_to_state100:
 231              	.LFB37:
 232              		.loc 1 50 0
 233              		.cfi_startproc
 234              		@ args = 0, pretend = 0, frame = 0
 235              		@ frame_needed = 0, uses_anonymous_args = 0
ARM GAS  C:\Users\Henrique\AppData\Local\Temp\cc0twXqK.s 			page 6


 236 0000 10B5     		push	{r4, lr}
 237              		.cfi_def_cfa_offset 8
 238              		.cfi_offset 4, -8
 239              		.cfi_offset 14, -4
  51:main.c        ****         if (BT_Read() == 0){
 240              		.loc 1 51 0
 241 0002 FFF7FEFF 		bl	BT_Read
 242              	.LVL10:
 243 0006 0028     		cmp	r0, #0
 244 0008 06D1     		bne	.L21
  52:main.c        ****             led_state = ESTADO_100;
 245              		.loc 1 52 0
 246 000a 0622     		movs	r2, #6
 247 000c 034B     		ldr	r3, .L23
 248 000e 1A70     		strb	r2, [r3]
  53:main.c        ****             PWM_1_WriteCompare (1000);
 249              		.loc 1 53 0
 250 0010 FA20     		movs	r0, #250
 251 0012 8000     		lsls	r0, r0, #2
 252 0014 FFF7FEFF 		bl	PWM_1_WriteCompare
 253              	.LVL11:
 254              	.L21:
  54:main.c        **** 
  55:main.c        ****         }
  56:main.c        **** }
 255              		.loc 1 56 0
 256              		@ sp needed
 257 0018 10BD     		pop	{r4, pc}
 258              	.L24:
 259 001a C046     		.align	2
 260              	.L23:
 261 001c 00000000 		.word	led_state
 262              		.cfi_endproc
 263              	.LFE37:
 264              		.size	go_to_state100, .-go_to_state100
 265              		.section	.text.main,"ax",%progbits
 266              		.align	2
 267              		.global	main
 268              		.code	16
 269              		.thumb_func
 270              		.type	main, %function
 271              	main:
 272              	.LFB38:
  57:main.c        **** int main(void)
  58:main.c        **** {
 273              		.loc 1 58 0
 274              		.cfi_startproc
 275              		@ Volatile: function does not return.
 276              		@ args = 0, pretend = 0, frame = 0
 277              		@ frame_needed = 0, uses_anonymous_args = 0
 278 0000 10B5     		push	{r4, lr}
 279              		.cfi_def_cfa_offset 8
 280              		.cfi_offset 4, -8
 281              		.cfi_offset 14, -4
  59:main.c        ****     CyGlobalIntEnable; /* Enable global interrupts. */
 282              		.loc 1 59 0
 283              		.syntax divided
ARM GAS  C:\Users\Henrique\AppData\Local\Temp\cc0twXqK.s 			page 7


 284              	@ 59 "main.c" 1
 285 0002 62B6     		CPSIE   i
 286              	@ 0 "" 2
  60:main.c        ****     PWM_1_Start();
 287              		.loc 1 60 0
 288              		.thumb
 289              		.syntax unified
 290 0004 FFF7FEFF 		bl	PWM_1_Start
 291              	.LVL12:
  61:main.c        ****     Clock_Start();
 292              		.loc 1 61 0
 293 0008 FFF7FEFF 		bl	Clock_Start
 294              	.LVL13:
 295              	.L26:
  62:main.c        **** 
  63:main.c        ****     /* Place your initialization/startup code here (e.g. MyInst_Start()) */
  64:main.c        **** 
  65:main.c        ****     for(;;)
  66:main.c        ****     {
  67:main.c        ****     if (BT_Read() == 0){
 296              		.loc 1 67 0
 297 000c FFF7FEFF 		bl	BT_Read
 298              	.LVL14:
 299 0010 0028     		cmp	r0, #0
 300 0012 FBD1     		bne	.L26
  68:main.c        ****         
  69:main.c        ****         switch(led_state){
 301              		.loc 1 69 0
 302 0014 0C4B     		ldr	r3, .L35
 303 0016 1A78     		ldrb	r2, [r3]
 304 0018 062A     		cmp	r2, #6
 305 001a F7D8     		bhi	.L26
 306 001c 9300     		lsls	r3, r2, #2
 307 001e 0B4A     		ldr	r2, .L35+4
 308 0020 D358     		ldr	r3, [r2, r3]
 309 0022 9F46     		mov	pc, r3
 310              		.section	.rodata
 311              		.align	2
 312              	.L29:
 313 0000 0C000000 		.word	.L26
 314 0004 24000000 		.word	.L28
 315 0008 2A000000 		.word	.L30
 316 000c 30000000 		.word	.L31
 317 0010 36000000 		.word	.L32
 318 0014 3C000000 		.word	.L33
 319 0018 42000000 		.word	.L34
 320              		.section	.text.main
 321              	.L28:
  70:main.c        ****         
  71:main.c        ****         case ESTADO_20:
  72:main.c        ****         go_to_state20();
 322              		.loc 1 72 0
 323 0024 FFF7FEFF 		bl	go_to_state20
 324              	.LVL15:
  73:main.c        ****         break;
 325              		.loc 1 73 0
 326 0028 F0E7     		b	.L26
ARM GAS  C:\Users\Henrique\AppData\Local\Temp\cc0twXqK.s 			page 8


 327              	.L30:
  74:main.c        ****          
  75:main.c        ****         case ESTADO_40:
  76:main.c        ****         go_to_state40();
 328              		.loc 1 76 0
 329 002a FFF7FEFF 		bl	go_to_state40
 330              	.LVL16:
  77:main.c        ****         break;
 331              		.loc 1 77 0
 332 002e EDE7     		b	.L26
 333              	.L31:
  78:main.c        ****         
  79:main.c        ****         case ESTADO_60:
  80:main.c        ****         go_to_state60();
 334              		.loc 1 80 0
 335 0030 FFF7FEFF 		bl	go_to_state60
 336              	.LVL17:
  81:main.c        ****         break;
 337              		.loc 1 81 0
 338 0034 EAE7     		b	.L26
 339              	.L32:
  82:main.c        ****          
  83:main.c        ****         case ESTADO_70:
  84:main.c        ****         go_to_state70();
 340              		.loc 1 84 0
 341 0036 FFF7FEFF 		bl	go_to_state70
 342              	.LVL18:
  85:main.c        ****         break;
 343              		.loc 1 85 0
 344 003a E7E7     		b	.L26
 345              	.L33:
  86:main.c        ****         
  87:main.c        ****         case ESTADO_80:
  88:main.c        ****         go_to_state80();
 346              		.loc 1 88 0
 347 003c FFF7FEFF 		bl	go_to_state80
 348              	.LVL19:
  89:main.c        ****         break;
 349              		.loc 1 89 0
 350 0040 E4E7     		b	.L26
 351              	.L34:
  90:main.c        ****         
  91:main.c        ****         case ESTADO_100:
  92:main.c        ****         go_to_state100();
 352              		.loc 1 92 0
 353 0042 FFF7FEFF 		bl	go_to_state100
 354              	.LVL20:
  93:main.c        ****         break;
 355              		.loc 1 93 0
 356 0046 E1E7     		b	.L26
 357              	.L36:
 358              		.align	2
 359              	.L35:
 360 0048 00000000 		.word	led_state
 361 004c 00000000 		.word	.L29
 362              		.cfi_endproc
 363              	.LFE38:
ARM GAS  C:\Users\Henrique\AppData\Local\Temp\cc0twXqK.s 			page 9


 364              		.size	main, .-main
 365              		.comm	led_state,1,1
 366              		.text
 367              	.Letext0:
 368              		.file 2 "Generated_Source\\PSoC4/BT.h"
 369              		.file 3 "Generated_Source\\PSoC4/PWM_1.h"
 370              		.file 4 "Generated_Source\\PSoC4/Clock.h"