ARM GAS  C:\Users\Henrique\AppData\Local\Temp\ccN3Wuf0.s 			page 1


   1              		.syntax unified
   2              		.cpu cortex-m0
   3              		.fpu softvfp
   4              		.eabi_attribute 20, 1
   5              		.eabi_attribute 21, 1
   6              		.eabi_attribute 23, 3
   7              		.eabi_attribute 24, 1
   8              		.eabi_attribute 25, 1
   9              		.eabi_attribute 26, 1
  10              		.eabi_attribute 30, 1
  11              		.eabi_attribute 34, 0
  12              		.eabi_attribute 18, 4
  13              		.thumb
  14              		.syntax unified
  15              		.file	"main.c"
  16              		.text
  17              	.Ltext0:
  18              		.cfi_sections	.debug_frame
  19              		.section	.text.Pin_SW2_Handler,"ax",%progbits
  20              		.align	2
  21              		.global	Pin_SW2_Handler
  22              		.code	16
  23              		.thumb_func
  24              		.type	Pin_SW2_Handler, %function
  25              	Pin_SW2_Handler:
  26              	.LFB32:
  27              		.file 1 "main.c"
   1:main.c        **** /* ========================================
   2:main.c        ****  *
   3:main.c        ****  * Copyright YOUR COMPANY, THE YEAR
   4:main.c        ****  * All Rights Reserved
   5:main.c        ****  * UNPUBLISHED, LICENSED SOFTWARE.
   6:main.c        ****  *
   7:main.c        ****  * CONFIDENTIAL AND PROPRIETARY INFORMATION
   8:main.c        ****  * WHICH IS THE PROPERTY OF your company.
   9:main.c        ****  *
  10:main.c        ****  * ========================================
  11:main.c        **** */
  12:main.c        **** #include "project.h"
  13:main.c        **** 
  14:main.c        **** CY_ISR (Pin_SW2_Handler)
  15:main.c        **** {
  28              		.loc 1 15 0
  29              		.cfi_startproc
  30              		@ args = 0, pretend = 0, frame = 0
  31              		@ frame_needed = 0, uses_anonymous_args = 0
  32 0000 10B5     		push	{r4, lr}
  33              		.cfi_def_cfa_offset 8
  34              		.cfi_offset 4, -8
  35              		.cfi_offset 14, -4
  16:main.c        ****    
  17:main.c        ****    LED_Write( ~LED_Read() );
  36              		.loc 1 17 0
  37 0002 FFF7FEFF 		bl	LED_Read
  38              	.LVL0:
  39 0006 C043     		mvns	r0, r0
  40 0008 C0B2     		uxtb	r0, r0
ARM GAS  C:\Users\Henrique\AppData\Local\Temp\ccN3Wuf0.s 			page 2


  41 000a FFF7FEFF 		bl	LED_Write
  42              	.LVL1:
  18:main.c        ****    
  19:main.c        ****    Pin_SW2_ClearInterrupt ();
  43              		.loc 1 19 0
  44 000e FFF7FEFF 		bl	Pin_SW2_ClearInterrupt
  45              	.LVL2:
  20:main.c        **** }
  46              		.loc 1 20 0
  47              		@ sp needed
  48 0012 10BD     		pop	{r4, pc}
  49              		.cfi_endproc
  50              	.LFE32:
  51              		.size	Pin_SW2_Handler, .-Pin_SW2_Handler
  52              		.section	.text.MY_ISR_TIMER,"ax",%progbits
  53              		.align	2
  54              		.global	MY_ISR_TIMER
  55              		.code	16
  56              		.thumb_func
  57              		.type	MY_ISR_TIMER, %function
  58              	MY_ISR_TIMER:
  59              	.LFB33:
  21:main.c        **** 
  22:main.c        **** CY_ISR (MY_ISR_TIMER)
  23:main.c        **** {
  60              		.loc 1 23 0
  61              		.cfi_startproc
  62              		@ args = 0, pretend = 0, frame = 0
  63              		@ frame_needed = 0, uses_anonymous_args = 0
  64 0000 10B5     		push	{r4, lr}
  65              		.cfi_def_cfa_offset 8
  66              		.cfi_offset 4, -8
  67              		.cfi_offset 14, -4
  24:main.c        ****    
  25:main.c        ****    LED_Write( ~LED_Read() );
  68              		.loc 1 25 0
  69 0002 FFF7FEFF 		bl	LED_Read
  70              	.LVL3:
  71 0006 C043     		mvns	r0, r0
  72 0008 C0B2     		uxtb	r0, r0
  73 000a FFF7FEFF 		bl	LED_Write
  74              	.LVL4:
  26:main.c        ****    
  27:main.c        ****    Timer_2_ReadStatusRegister();
  75              		.loc 1 27 0
  76 000e FFF7FEFF 		bl	Timer_2_ReadStatusRegister
  77              	.LVL5:
  28:main.c        **** }
  78              		.loc 1 28 0
  79              		@ sp needed
  80 0012 10BD     		pop	{r4, pc}
  81              		.cfi_endproc
  82              	.LFE33:
  83              		.size	MY_ISR_TIMER, .-MY_ISR_TIMER
  84              		.section	.text.main,"ax",%progbits
  85              		.align	2
  86              		.global	main
ARM GAS  C:\Users\Henrique\AppData\Local\Temp\ccN3Wuf0.s 			page 3


  87              		.code	16
  88              		.thumb_func
  89              		.type	main, %function
  90              	main:
  91              	.LFB34:
  29:main.c        **** 
  30:main.c        **** int main(void)
  31:main.c        **** {
  92              		.loc 1 31 0
  93              		.cfi_startproc
  94              		@ Volatile: function does not return.
  95              		@ args = 0, pretend = 0, frame = 0
  96              		@ frame_needed = 0, uses_anonymous_args = 0
  97 0000 10B5     		push	{r4, lr}
  98              		.cfi_def_cfa_offset 8
  99              		.cfi_offset 4, -8
 100              		.cfi_offset 14, -4
  32:main.c        ****     CyGlobalIntEnable; /* Enable global interrupts. */
 101              		.loc 1 32 0
 102              		.syntax divided
 103              	@ 32 "main.c" 1
 104 0002 62B6     		CPSIE   i
 105              	@ 0 "" 2
  33:main.c        **** 
  34:main.c        ****     ISR_StartEx(Pin_SW2_Handler);
 106              		.loc 1 34 0
 107              		.thumb
 108              		.syntax unified
 109 0004 0448     		ldr	r0, .L5
 110 0006 FFF7FEFF 		bl	ISR_StartEx
 111              	.LVL6:
  35:main.c        ****     Timer_2_Start ();
 112              		.loc 1 35 0
 113 000a FFF7FEFF 		bl	Timer_2_Start
 114              	.LVL7:
  36:main.c        ****     ISR_TIMER_StartEx(MY_ISR_TIMER);
 115              		.loc 1 36 0
 116 000e 0348     		ldr	r0, .L5+4
 117 0010 FFF7FEFF 		bl	ISR_TIMER_StartEx
 118              	.LVL8:
 119              	.L4:
 120 0014 FEE7     		b	.L4
 121              	.L6:
 122 0016 C046     		.align	2
 123              	.L5:
 124 0018 00000000 		.word	Pin_SW2_Handler
 125 001c 00000000 		.word	MY_ISR_TIMER
 126              		.cfi_endproc
 127              	.LFE34:
 128              		.size	main, .-main
 129              		.text
 130              	.Letext0:
 131              		.file 2 "Generated_Source\\PSoC4/LED.h"
 132              		.file 3 "Generated_Source\\PSoC4/Pin_SW2.h"
 133              		.file 4 "Generated_Source\\PSoC4/Timer_2.h"
 134              		.file 5 "Generated_Source\\PSoC4/ISR.h"
 135              		.file 6 "Generated_Source\\PSoC4/ISR_TIMER.h"
ARM GAS  C:\Users\Henrique\AppData\Local\Temp\ccN3Wuf0.s 			page 4

