ARM GAS  C:\Users\Henrique\AppData\Local\Temp\ccoLKyOT.s 			page 1


   1              		.syntax unified
   2              		.cpu cortex-m0
   3              		.fpu softvfp
   4              		.eabi_attribute 20, 1
   5              		.eabi_attribute 21, 1
   6              		.eabi_attribute 23, 3
   7              		.eabi_attribute 24, 1
   8              		.eabi_attribute 25, 1
   9              		.eabi_attribute 26, 1
  10              		.eabi_attribute 30, 1
  11              		.eabi_attribute 34, 0
  12              		.eabi_attribute 18, 4
  13              		.thumb
  14              		.syntax unified
  15              		.file	"main.c"
  16              		.text
  17              	.Ltext0:
  18              		.cfi_sections	.debug_frame
  19              		.section	.text.go_to_state1,"ax",%progbits
  20              		.align	2
  21              		.global	go_to_state1
  22              		.code	16
  23              		.thumb_func
  24              		.type	go_to_state1, %function
  25              	go_to_state1:
  26              	.LFB32:
  27              		.file 1 "main.c"
   1:main.c        **** /* ========================================
   2:main.c        ****  *
   3:main.c        ****  * Copyright YOUR COMPANY, THE YEAR
   4:main.c        ****  * All Rights Reserved
   5:main.c        ****  * UNPUBLISHED, LICENSED SOFTWARE.
   6:main.c        ****  *
   7:main.c        ****  * CONFIDENTIAL AND PROPRIETARY INFORMATION
   8:main.c        ****  * WHICH IS THE PROPERTY OF your company.
   9:main.c        ****  *
  10:main.c        ****  * ========================================
  11:main.c        **** */
  12:main.c        **** #include "project.h"
  13:main.c        **** enum estados {Estado_1, Estado_2, Estado_3, Estado_4};
  14:main.c        **** enum estados M_state;
  15:main.c        ****     
  16:main.c        **** 
  17:main.c        **** 
  18:main.c        ****    void go_to_state1(){
  28              		.loc 1 18 0
  29              		.cfi_startproc
  30              		@ args = 0, pretend = 0, frame = 0
  31              		@ frame_needed = 0, uses_anonymous_args = 0
  32 0000 10B5     		push	{r4, lr}
  33              		.cfi_def_cfa_offset 8
  34              		.cfi_offset 4, -8
  35              		.cfi_offset 14, -4
  19:main.c        ****         if (bd_Read() == 0){
  36              		.loc 1 19 0
  37 0002 FFF7FEFF 		bl	bd_Read
  38              	.LVL0:
ARM GAS  C:\Users\Henrique\AppData\Local\Temp\ccoLKyOT.s 			page 2


  39 0006 0028     		cmp	r0, #0
  40 0008 0DD1     		bne	.L1
  20:main.c        ****             M_state = Estado_1;
  41              		.loc 1 20 0
  42 000a 0022     		movs	r2, #0
  43 000c 064B     		ldr	r3, .L3
  44 000e 1A70     		strb	r2, [r3]
  21:main.c        ****             in3_Write(0);
  45              		.loc 1 21 0
  46 0010 FFF7FEFF 		bl	in3_Write
  47              	.LVL1:
  22:main.c        ****             in4_Write(0);
  48              		.loc 1 22 0
  49 0014 0020     		movs	r0, #0
  50 0016 FFF7FEFF 		bl	in4_Write
  51              	.LVL2:
  23:main.c        ****             in1_Write(1);
  52              		.loc 1 23 0
  53 001a 0120     		movs	r0, #1
  54 001c FFF7FEFF 		bl	in1_Write
  55              	.LVL3:
  24:main.c        ****             in2_Write(0);
  56              		.loc 1 24 0
  57 0020 0020     		movs	r0, #0
  58 0022 FFF7FEFF 		bl	in2_Write
  59              	.LVL4:
  60              	.L1:
  25:main.c        **** 
  26:main.c        ****         }
  27:main.c        **** }
  61              		.loc 1 27 0
  62              		@ sp needed
  63 0026 10BD     		pop	{r4, pc}
  64              	.L4:
  65              		.align	2
  66              	.L3:
  67 0028 00000000 		.word	M_state
  68              		.cfi_endproc
  69              	.LFE32:
  70              		.size	go_to_state1, .-go_to_state1
  71              		.section	.text.go_to_state2,"ax",%progbits
  72              		.align	2
  73              		.global	go_to_state2
  74              		.code	16
  75              		.thumb_func
  76              		.type	go_to_state2, %function
  77              	go_to_state2:
  78              	.LFB33:
  28:main.c        ****         
  29:main.c        ****    void go_to_state2(){
  79              		.loc 1 29 0
  80              		.cfi_startproc
  81              		@ args = 0, pretend = 0, frame = 0
  82              		@ frame_needed = 0, uses_anonymous_args = 0
  83 0000 10B5     		push	{r4, lr}
  84              		.cfi_def_cfa_offset 8
  85              		.cfi_offset 4, -8
ARM GAS  C:\Users\Henrique\AppData\Local\Temp\ccoLKyOT.s 			page 3


  86              		.cfi_offset 14, -4
  30:main.c        ****         if (be_Read() == 1){
  87              		.loc 1 30 0
  88 0002 FFF7FEFF 		bl	be_Read
  89              	.LVL5:
  90 0006 0128     		cmp	r0, #1
  91 0008 0ED1     		bne	.L5
  31:main.c        ****             M_state = Estado_2;
  92              		.loc 1 31 0
  93 000a 0122     		movs	r2, #1
  94 000c 074B     		ldr	r3, .L7
  95 000e 1A70     		strb	r2, [r3]
  32:main.c        ****             in1_Write(0);
  96              		.loc 1 32 0
  97 0010 0020     		movs	r0, #0
  98 0012 FFF7FEFF 		bl	in1_Write
  99              	.LVL6:
  33:main.c        ****             in2_Write(1);
 100              		.loc 1 33 0
 101 0016 0120     		movs	r0, #1
 102 0018 FFF7FEFF 		bl	in2_Write
 103              	.LVL7:
  34:main.c        ****             in3_Write(0);
 104              		.loc 1 34 0
 105 001c 0020     		movs	r0, #0
 106 001e FFF7FEFF 		bl	in3_Write
 107              	.LVL8:
  35:main.c        ****             in4_Write(0);
 108              		.loc 1 35 0
 109 0022 0020     		movs	r0, #0
 110 0024 FFF7FEFF 		bl	in4_Write
 111              	.LVL9:
 112              	.L5:
  36:main.c        ****             
  37:main.c        ****         }   
  38:main.c        **** }
 113              		.loc 1 38 0
 114              		@ sp needed
 115 0028 10BD     		pop	{r4, pc}
 116              	.L8:
 117 002a C046     		.align	2
 118              	.L7:
 119 002c 00000000 		.word	M_state
 120              		.cfi_endproc
 121              	.LFE33:
 122              		.size	go_to_state2, .-go_to_state2
 123              		.section	.text.go_to_state3,"ax",%progbits
 124              		.align	2
 125              		.global	go_to_state3
 126              		.code	16
 127              		.thumb_func
 128              		.type	go_to_state3, %function
 129              	go_to_state3:
 130              	.LFB34:
  39:main.c        **** 
  40:main.c        ****   
  41:main.c        ****      void go_to_state3(){
ARM GAS  C:\Users\Henrique\AppData\Local\Temp\ccoLKyOT.s 			page 4


 131              		.loc 1 41 0
 132              		.cfi_startproc
 133              		@ args = 0, pretend = 0, frame = 0
 134              		@ frame_needed = 0, uses_anonymous_args = 0
 135 0000 10B5     		push	{r4, lr}
 136              		.cfi_def_cfa_offset 8
 137              		.cfi_offset 4, -8
 138              		.cfi_offset 14, -4
  42:main.c        ****         if (be_Read() == 1){
 139              		.loc 1 42 0
 140 0002 FFF7FEFF 		bl	be_Read
 141              	.LVL10:
 142 0006 0128     		cmp	r0, #1
 143 0008 0ED1     		bne	.L9
  43:main.c        ****             M_state = Estado_3;
 144              		.loc 1 43 0
 145 000a 0222     		movs	r2, #2
 146 000c 074B     		ldr	r3, .L11
 147 000e 1A70     		strb	r2, [r3]
  44:main.c        ****             in1_Write(0);
 148              		.loc 1 44 0
 149 0010 0020     		movs	r0, #0
 150 0012 FFF7FEFF 		bl	in1_Write
 151              	.LVL11:
  45:main.c        ****             in2_Write(0);
 152              		.loc 1 45 0
 153 0016 0020     		movs	r0, #0
 154 0018 FFF7FEFF 		bl	in2_Write
 155              	.LVL12:
  46:main.c        ****             in3_Write(1);
 156              		.loc 1 46 0
 157 001c 0120     		movs	r0, #1
 158 001e FFF7FEFF 		bl	in3_Write
 159              	.LVL13:
  47:main.c        ****             in4_Write(0);
 160              		.loc 1 47 0
 161 0022 0020     		movs	r0, #0
 162 0024 FFF7FEFF 		bl	in4_Write
 163              	.LVL14:
 164              	.L9:
  48:main.c        ****             
  49:main.c        ****         }   
  50:main.c        **** }
 165              		.loc 1 50 0
 166              		@ sp needed
 167 0028 10BD     		pop	{r4, pc}
 168              	.L12:
 169 002a C046     		.align	2
 170              	.L11:
 171 002c 00000000 		.word	M_state
 172              		.cfi_endproc
 173              	.LFE34:
 174              		.size	go_to_state3, .-go_to_state3
 175              		.section	.text.go_to_state4,"ax",%progbits
 176              		.align	2
 177              		.global	go_to_state4
 178              		.code	16
ARM GAS  C:\Users\Henrique\AppData\Local\Temp\ccoLKyOT.s 			page 5


 179              		.thumb_func
 180              		.type	go_to_state4, %function
 181              	go_to_state4:
 182              	.LFB35:
  51:main.c        ****    void go_to_state4(){
 183              		.loc 1 51 0
 184              		.cfi_startproc
 185              		@ args = 0, pretend = 0, frame = 0
 186              		@ frame_needed = 0, uses_anonymous_args = 0
 187 0000 10B5     		push	{r4, lr}
 188              		.cfi_def_cfa_offset 8
 189              		.cfi_offset 4, -8
 190              		.cfi_offset 14, -4
  52:main.c        ****         if (bd_Read() == 0){
 191              		.loc 1 52 0
 192 0002 FFF7FEFF 		bl	bd_Read
 193              	.LVL15:
 194 0006 0028     		cmp	r0, #0
 195 0008 0DD1     		bne	.L13
  53:main.c        ****             M_state = Estado_4;
 196              		.loc 1 53 0
 197 000a 0322     		movs	r2, #3
 198 000c 064B     		ldr	r3, .L15
 199 000e 1A70     		strb	r2, [r3]
  54:main.c        ****             in3_Write(0);
 200              		.loc 1 54 0
 201 0010 FFF7FEFF 		bl	in3_Write
 202              	.LVL16:
  55:main.c        ****             in4_Write(1);
 203              		.loc 1 55 0
 204 0014 0120     		movs	r0, #1
 205 0016 FFF7FEFF 		bl	in4_Write
 206              	.LVL17:
  56:main.c        ****             in1_Write(0);
 207              		.loc 1 56 0
 208 001a 0020     		movs	r0, #0
 209 001c FFF7FEFF 		bl	in1_Write
 210              	.LVL18:
  57:main.c        ****             in2_Write(0);
 211              		.loc 1 57 0
 212 0020 0020     		movs	r0, #0
 213 0022 FFF7FEFF 		bl	in2_Write
 214              	.LVL19:
 215              	.L13:
  58:main.c        **** 
  59:main.c        ****         }   
  60:main.c        **** }
 216              		.loc 1 60 0
 217              		@ sp needed
 218 0026 10BD     		pop	{r4, pc}
 219              	.L16:
 220              		.align	2
 221              	.L15:
 222 0028 00000000 		.word	M_state
 223              		.cfi_endproc
 224              	.LFE35:
 225              		.size	go_to_state4, .-go_to_state4
ARM GAS  C:\Users\Henrique\AppData\Local\Temp\ccoLKyOT.s 			page 6


 226              		.section	.text.main,"ax",%progbits
 227              		.align	2
 228              		.global	main
 229              		.code	16
 230              		.thumb_func
 231              		.type	main, %function
 232              	main:
 233              	.LFB36:
  61:main.c        **** int main(void)
  62:main.c        **** {
 234              		.loc 1 62 0
 235              		.cfi_startproc
 236              		@ Volatile: function does not return.
 237              		@ args = 0, pretend = 0, frame = 0
 238              		@ frame_needed = 0, uses_anonymous_args = 0
 239 0000 10B5     		push	{r4, lr}
 240              		.cfi_def_cfa_offset 8
 241              		.cfi_offset 4, -8
 242              		.cfi_offset 14, -4
  63:main.c        ****     CyGlobalIntEnable; /* Enable global interrupts. */
 243              		.loc 1 63 0
 244              		.syntax divided
 245              	@ 63 "main.c" 1
 246 0002 62B6     		CPSIE   i
 247              	@ 0 "" 2
  64:main.c        ****     ena_Write(1);
 248              		.loc 1 64 0
 249              		.thumb
 250              		.syntax unified
 251 0004 0120     		movs	r0, #1
 252 0006 FFF7FEFF 		bl	ena_Write
 253              	.LVL20:
  65:main.c        ****     enb_Write(1);
 254              		.loc 1 65 0
 255 000a 0120     		movs	r0, #1
 256 000c FFF7FEFF 		bl	enb_Write
 257              	.LVL21:
  66:main.c        ****         
  67:main.c        ****     /* Place your initialization/startup code here (e.g. MyInst_Start()) */
  68:main.c        ****     M_state = Estado_1;
 258              		.loc 1 68 0
 259 0010 0022     		movs	r2, #0
 260 0012 1D4B     		ldr	r3, .L29
 261 0014 1A70     		strb	r2, [r3]
 262              	.L28:
  69:main.c        ****     for(;;)
  70:main.c        ****    
  71:main.c        ****     {
  72:main.c        ****        if (be_Read() == 1){
 263              		.loc 1 72 0
 264 0016 FFF7FEFF 		bl	be_Read
 265              	.LVL22:
 266 001a 0128     		cmp	r0, #1
 267 001c 15D1     		bne	.L18
  73:main.c        ****         
  74:main.c        ****         switch(M_state){
 268              		.loc 1 74 0
ARM GAS  C:\Users\Henrique\AppData\Local\Temp\ccoLKyOT.s 			page 7


 269 001e 1A4B     		ldr	r3, .L29
 270 0020 1B78     		ldrb	r3, [r3]
 271 0022 012B     		cmp	r3, #1
 272 0024 09D0     		beq	.L19
 273 0026 002B     		cmp	r3, #0
 274 0028 04D0     		beq	.L20
 275 002a 022B     		cmp	r3, #2
 276 002c 08D0     		beq	.L21
 277 002e 032B     		cmp	r3, #3
 278 0030 09D0     		beq	.L22
 279 0032 0AE0     		b	.L18
 280              	.L20:
  75:main.c        ****         
  76:main.c        ****         case Estado_1:
  77:main.c        ****         go_to_state2();
 281              		.loc 1 77 0
 282 0034 FFF7FEFF 		bl	go_to_state2
 283              	.LVL23:
  78:main.c        ****         break;
 284              		.loc 1 78 0
 285 0038 07E0     		b	.L18
 286              	.L19:
  79:main.c        ****          
  80:main.c        ****         case Estado_2:
  81:main.c        ****         go_to_state3();
 287              		.loc 1 81 0
 288 003a FFF7FEFF 		bl	go_to_state3
 289              	.LVL24:
  82:main.c        ****         break;
 290              		.loc 1 82 0
 291 003e 04E0     		b	.L18
 292              	.L21:
  83:main.c        ****         
  84:main.c        ****         case Estado_3:
  85:main.c        ****         go_to_state4();
 293              		.loc 1 85 0
 294 0040 FFF7FEFF 		bl	go_to_state4
 295              	.LVL25:
  86:main.c        ****         break;
 296              		.loc 1 86 0
 297 0044 01E0     		b	.L18
 298              	.L22:
  87:main.c        ****          
  88:main.c        ****         case Estado_4:
  89:main.c        ****         go_to_state1();
 299              		.loc 1 89 0
 300 0046 FFF7FEFF 		bl	go_to_state1
 301              	.LVL26:
 302              	.L18:
  90:main.c        ****         break;
  91:main.c        ****         }
  92:main.c        ****         }
  93:main.c        ****     if (bd_Read() == 0){
 303              		.loc 1 93 0
 304 004a FFF7FEFF 		bl	bd_Read
 305              	.LVL27:
 306 004e 0028     		cmp	r0, #0
ARM GAS  C:\Users\Henrique\AppData\Local\Temp\ccoLKyOT.s 			page 8


 307 0050 15D1     		bne	.L23
  94:main.c        ****         
  95:main.c        ****         switch(M_state)
 308              		.loc 1 95 0
 309 0052 0D4B     		ldr	r3, .L29
 310 0054 1B78     		ldrb	r3, [r3]
 311 0056 012B     		cmp	r3, #1
 312 0058 0FD0     		beq	.L24
 313 005a 002B     		cmp	r3, #0
 314 005c 04D0     		beq	.L25
 315 005e 022B     		cmp	r3, #2
 316 0060 08D0     		beq	.L26
 317 0062 032B     		cmp	r3, #3
 318 0064 03D0     		beq	.L27
 319 0066 0AE0     		b	.L23
 320              	.L25:
  96:main.c        ****     {    
  97:main.c        ****         case Estado_1:
  98:main.c        ****         go_to_state4();
 321              		.loc 1 98 0
 322 0068 FFF7FEFF 		bl	go_to_state4
 323              	.LVL28:
  99:main.c        ****         break;
 324              		.loc 1 99 0
 325 006c 07E0     		b	.L23
 326              	.L27:
 100:main.c        ****         
 101:main.c        ****         case Estado_4:
 102:main.c        ****         go_to_state3();
 327              		.loc 1 102 0
 328 006e FFF7FEFF 		bl	go_to_state3
 329              	.LVL29:
 103:main.c        ****         break;
 330              		.loc 1 103 0
 331 0072 04E0     		b	.L23
 332              	.L26:
 104:main.c        ****          
 105:main.c        ****         case Estado_3:
 106:main.c        ****         go_to_state2();
 333              		.loc 1 106 0
 334 0074 FFF7FEFF 		bl	go_to_state2
 335              	.LVL30:
 107:main.c        ****         break;
 336              		.loc 1 107 0
 337 0078 01E0     		b	.L23
 338              	.L24:
 108:main.c        ****         
 109:main.c        ****         case  Estado_2:
 110:main.c        ****         go_to_state1();
 339              		.loc 1 110 0
 340 007a FFF7FEFF 		bl	go_to_state1
 341              	.LVL31:
 342              	.L23:
 111:main.c        ****         break;
 112:main.c        ****          
 113:main.c        ****     }
 114:main.c        ****     }
ARM GAS  C:\Users\Henrique\AppData\Local\Temp\ccoLKyOT.s 			page 9


 115:main.c        **** 
 116:main.c        ****    CyDelay(200);
 343              		.loc 1 116 0
 344 007e C820     		movs	r0, #200
 345 0080 FFF7FEFF 		bl	CyDelay
 346              	.LVL32:
 117:main.c        ****         
 118:main.c        ****         
 119:main.c        ****         /* Place your application code here. */
 120:main.c        ****     
 121:main.c        ****     }
 347              		.loc 1 121 0
 348 0084 C7E7     		b	.L28
 349              	.L30:
 350 0086 C046     		.align	2
 351              	.L29:
 352 0088 00000000 		.word	M_state
 353              		.cfi_endproc
 354              	.LFE36:
 355              		.size	main, .-main
 356              		.comm	M_state,1,1
 357              		.text
 358              	.Letext0:
 359              		.file 2 "Generated_Source\\PSoC4/bd.h"
 360              		.file 3 "Generated_Source\\PSoC4/in3.h"
 361              		.file 4 "Generated_Source\\PSoC4/in4.h"
 362              		.file 5 "Generated_Source\\PSoC4/in1.h"
 363              		.file 6 "Generated_Source\\PSoC4/in2.h"
 364              		.file 7 "Generated_Source\\PSoC4/be.h"
 365              		.file 8 "Generated_Source\\PSoC4/ena.h"
 366              		.file 9 "Generated_Source\\PSoC4/enb.h"
 367              		.file 10 "Generated_Source\\PSoC4/CyLib.h"